
./build/output.elf:     file format elf32-littlearm


Disassembly of section .init:

00008000 <_start>:
    8000:	e59ff018 	ldr	pc, [pc, #24]	; 8020 <reset_handler>
    8004:	e59ff018 	ldr	pc, [pc, #24]	; 8024 <undefined_handler>
    8008:	e59ff018 	ldr	pc, [pc, #24]	; 8028 <swi_handler>
    800c:	e59ff018 	ldr	pc, [pc, #24]	; 802c <pref_abort_handler>
    8010:	e59ff018 	ldr	pc, [pc, #24]	; 8030 <data_abort_handler>
    8014:	e59ff018 	ldr	pc, [pc, #24]	; 8034 <dummy_handler>
    8018:	e59ff018 	ldr	pc, [pc, #24]	; 8038 <irq_handler>
    801c:	e59ff018 	ldr	pc, [pc, #24]	; 803c <fiq_handler>

00008020 <reset_handler>:
    8020:	00008040 	andeq	r8, r0, r0, asr #32

00008024 <undefined_handler>:
    8024:	0000809c 	muleq	r0, ip, r0

00008028 <swi_handler>:
    8028:	0000809c 	muleq	r0, ip, r0

0000802c <pref_abort_handler>:
    802c:	0000809c 	muleq	r0, ip, r0

00008030 <data_abort_handler>:
    8030:	0000809c 	muleq	r0, ip, r0

00008034 <dummy_handler>:
    8034:	0000809c 	muleq	r0, ip, r0

00008038 <irq_handler>:
    8038:	000080a0 	andeq	r8, r0, r0, lsr #1

0000803c <fiq_handler>:
    803c:	0000809c 	muleq	r0, ip, r0

00008040 <reset>:
    8040:	e3a00000 	mov	r0, #0
    8044:	e3a01902 	mov	r1, #32768	; 0x8000
    8048:	e8b103fc 	ldm	r1!, {r2, r3, r4, r5, r6, r7, r8, r9}
    804c:	e8a003fc 	stmia	r0!, {r2, r3, r4, r5, r6, r7, r8, r9}
    8050:	e8b103fc 	ldm	r1!, {r2, r3, r4, r5, r6, r7, r8, r9}
    8054:	e8a003fc 	stmia	r0!, {r2, r3, r4, r5, r6, r7, r8, r9}
    8058:	e3a0d902 	mov	sp, #32768	; 0x8000
    805c:	e10f0000 	mrs	r0, CPSR
    8060:	e3c000ff 	bic	r0, r0, #255	; 0xff
    8064:	e38000d2 	orr	r0, r0, #210	; 0xd2
    8068:	e121f000 	msr	CPSR_c, r0
    806c:	e3a0d901 	mov	sp, #16384	; 0x4000
    8070:	e10f0000 	mrs	r0, CPSR
    8074:	e3c000ff 	bic	r0, r0, #255	; 0xff
    8078:	e38000d3 	orr	r0, r0, #211	; 0xd3
    807c:	e121f000 	msr	CPSR_c, r0
    8080:	e59f005c 	ldr	r0, [pc, #92]	; 80e4 <keyboard+0x18>
    8084:	e59f105c 	ldr	r1, [pc, #92]	; 80e8 <keyboard+0x1c>
    8088:	e3a02000 	mov	r2, #0

0000808c <loop>:
    808c:	e1500001 	cmp	r0, r1
    8090:	34802004 	strcc	r2, [r0], #4
    8094:	3afffffc 	bcc	808c <loop>
    8098:	eb000703 	bl	9cac <entry>

0000809c <dummy>:
    809c:	eafffffe 	b	809c <dummy>

000080a0 <irq>:
    80a0:	e92d5fff 	push	{r0, r1, r2, r3, r4, r5, r6, r7, r8, r9, sl, fp, ip, lr}
    80a4:	e59f0040 	ldr	r0, [pc, #64]	; 80ec <keyboard+0x20>
    80a8:	e3a01001 	mov	r1, #1
    80ac:	e5801000 	str	r1, [r0]
    80b0:	e59f0038 	ldr	r0, [pc, #56]	; 80f0 <keyboard+0x24>
    80b4:	e5901000 	ldr	r1, [r0]
    80b8:	e2111002 	ands	r1, r1, #2
    80bc:	0a000002 	beq	80cc <keyboard>

000080c0 <timer>:
    80c0:	eb0006e8 	bl	9c68 <tIrqHandler>
    80c4:	e8bd5fff 	pop	{r0, r1, r2, r3, r4, r5, r6, r7, r8, r9, sl, fp, ip, lr}
    80c8:	e25ef004 	subs	pc, lr, #4

000080cc <keyboard>:
    80cc:	e59f0020 	ldr	r0, [pc, #32]	; 80f4 <keyboard+0x28>
    80d0:	e59f1020 	ldr	r1, [pc, #32]	; 80f8 <keyboard+0x2c>
    80d4:	e5801000 	str	r1, [r0]
    80d8:	eb000266 	bl	8a78 <kIrqHandler>
    80dc:	e8bd5fff 	pop	{r0, r1, r2, r3, r4, r5, r6, r7, r8, r9, sl, fp, ip, lr}
    80e0:	e25ef004 	subs	pc, lr, #4
    80e4:	0000b9b8 			; <UNDEFINED> instruction: 0x0000b9b8
    80e8:	0000b9dc 	ldrdeq	fp, [r0], -ip
    80ec:	0000bb44 	andeq	fp, r0, r4, asr #22
    80f0:	20003000 	andcs	r3, r0, r0
    80f4:	20200040 	eorcs	r0, r0, r0, asr #32
    80f8:	08068000 	stmdaeq	r6, {pc}

Disassembly of section .text:

000080fc <irqEnable>:
    80fc:	e10f0000 	mrs	r0, CPSR
    8100:	e3c01080 	bic	r1, r0, #128	; 0x80
    8104:	e129f001 	msr	CPSR_fc, r1
    8108:	e12fff1e 	bx	lr

0000810c <irqDisable>:
    810c:	e10f0000 	mrs	r0, CPSR
    8110:	e3a02080 	mov	r2, #128	; 0x80
    8114:	e1822000 	orr	r2, r2, r0
    8118:	e129f000 	msr	CPSR_fc, r0
    811c:	e12fff1e 	bx	lr

00008120 <getTimerAddr>:
    8120:	e59f00cc 	ldr	r0, [pc, #204]	; 81f4 <notEnough+0xc>
    8124:	e1a0f00e 	mov	pc, lr

00008128 <waitCycles>:
    8128:	e3500000 	cmp	r0, #0
    812c:	82400001 	subhi	r0, r0, #1
    8130:	8afffffc 	bhi	8128 <waitCycles>
    8134:	e1a0f00e 	mov	pc, lr

00008138 <wait>:
    8138:	e52de004 	push	{lr}		; (str lr, [sp, #-4]!)
    813c:	e1a03000 	mov	r3, r0
    8140:	ebfffff6 	bl	8120 <getTimerAddr>
    8144:	e5901004 	ldr	r1, [r0, #4]
    8148:	e5902008 	ldr	r2, [r0, #8]
    814c:	e0911003 	adds	r1, r1, r3
    8150:	22822001 	addcs	r2, r2, #1
    8154:	3a000002 	bcc	8164 <lowLoop>

00008158 <highLoop>:
    8158:	e5903008 	ldr	r3, [r0, #8]
    815c:	e1530002 	cmp	r3, r2
    8160:	3afffffc 	bcc	8158 <highLoop>

00008164 <lowLoop>:
    8164:	e5903004 	ldr	r3, [r0, #4]
    8168:	e1530001 	cmp	r3, r1
    816c:	3afffffc 	bcc	8164 <lowLoop>
    8170:	e49de004 	pop	{lr}		; (ldr lr, [sp], #4)
    8174:	e1a0f00e 	mov	pc, lr

00008178 <pushCounter>:
    8178:	e52de004 	push	{lr}		; (str lr, [sp, #-4]!)
    817c:	e1a03000 	mov	r3, r0
    8180:	ebffffe6 	bl	8120 <getTimerAddr>
    8184:	e5901004 	ldr	r1, [r0, #4]
    8188:	e5902008 	ldr	r2, [r0, #8]
    818c:	e0911003 	adds	r1, r1, r3
    8190:	22822001 	addcs	r2, r2, #1
    8194:	e59f005c 	ldr	r0, [pc, #92]	; 81f8 <notEnough+0x10>
    8198:	e5802000 	str	r2, [r0]
    819c:	e59f0058 	ldr	r0, [pc, #88]	; 81fc <notEnough+0x14>
    81a0:	e5801000 	str	r1, [r0]
    81a4:	e49de004 	pop	{lr}		; (ldr lr, [sp], #4)
    81a8:	e1a0f00e 	mov	pc, lr

000081ac <pollCounter>:
    81ac:	e52de004 	push	{lr}		; (str lr, [sp, #-4]!)
    81b0:	e59f0040 	ldr	r0, [pc, #64]	; 81f8 <notEnough+0x10>
    81b4:	e5902000 	ldr	r2, [r0]
    81b8:	e59f003c 	ldr	r0, [pc, #60]	; 81fc <notEnough+0x14>
    81bc:	e5901000 	ldr	r1, [r0]
    81c0:	ebffffd6 	bl	8120 <getTimerAddr>
    81c4:	e5903008 	ldr	r3, [r0, #8]
    81c8:	e1530002 	cmp	r3, r2
    81cc:	3a000005 	bcc	81e8 <notEnough>
    81d0:	e5903004 	ldr	r3, [r0, #4]
    81d4:	e1530001 	cmp	r3, r1
    81d8:	3a000002 	bcc	81e8 <notEnough>

000081dc <enough>:
    81dc:	e3a00001 	mov	r0, #1
    81e0:	e49de004 	pop	{lr}		; (ldr lr, [sp], #4)
    81e4:	e1a0f00e 	mov	pc, lr

000081e8 <notEnough>:
    81e8:	e3a00000 	mov	r0, #0
    81ec:	e49de004 	pop	{lr}		; (ldr lr, [sp], #4)
    81f0:	e1a0f00e 	mov	pc, lr
    81f4:	20003000 	andcs	r3, r0, r0
    81f8:	0000ad44 	andeq	sl, r0, r4, asr #26
    81fc:	0000ad40 	andeq	sl, r0, r0, asr #26

00008200 <setGpioFunct>:
    8200:	e59f303c 	ldr	r3, [pc, #60]	; 8244 <setGpioFunct+0x44>
    8204:	e1a0cfc0 	asr	ip, r0, #31
    8208:	e0c32390 	smull	r2, r3, r0, r3
    820c:	e59f2034 	ldr	r2, [pc, #52]	; 8248 <setGpioFunct+0x48>
    8210:	e06c3143 	rsb	r3, ip, r3, asr #2
    8214:	e5922000 	ldr	r2, [r2]
    8218:	e083c103 	add	ip, r3, r3, lsl #2
    821c:	e040008c 	sub	r0, r0, ip, lsl #1
    8220:	e792c103 	ldr	ip, [r2, r3, lsl #2]
    8224:	e52d4004 	push	{r4}		; (str r4, [sp, #-4]!)
    8228:	e0800080 	add	r0, r0, r0, lsl #1
    822c:	e3a04007 	mov	r4, #7
    8230:	e1ccc014 	bic	ip, ip, r4, lsl r0
    8234:	e18c1011 	orr	r1, ip, r1, lsl r0
    8238:	e7821103 	str	r1, [r2, r3, lsl #2]
    823c:	e8bd0010 	ldmfd	sp!, {r4}
    8240:	e12fff1e 	bx	lr
    8244:	66666667 	strbtvs	r6, [r6], -r7, ror #12
    8248:	0000ad48 	andeq	sl, r0, r8, asr #26

0000824c <setPull>:
    824c:	e92d4038 	push	{r3, r4, r5, lr}
    8250:	e59f506c 	ldr	r5, [pc, #108]	; 82c4 <setPull+0x78>
    8254:	e2011003 	and	r1, r1, #3
    8258:	e5953004 	ldr	r3, [r5, #4]
    825c:	e1a04000 	mov	r4, r0
    8260:	e5831000 	str	r1, [r3]
    8264:	e3a00096 	mov	r0, #150	; 0x96
    8268:	ebffffae 	bl	8128 <waitCycles>
    826c:	e1a03fc4 	asr	r3, r4, #31
    8270:	e1a03da3 	lsr	r3, r3, #27
    8274:	e0842003 	add	r2, r4, r3
    8278:	e202201f 	and	r2, r2, #31
    827c:	e0633002 	rsb	r3, r3, r2
    8280:	e3a02001 	mov	r2, #1
    8284:	e1a03312 	lsl	r3, r2, r3
    8288:	e3540000 	cmp	r4, #0
    828c:	e284201f 	add	r2, r4, #31
    8290:	b1a04002 	movlt	r4, r2
    8294:	e1a042c4 	asr	r4, r4, #5
    8298:	e5952004 	ldr	r2, [r5, #4]
    829c:	e2844001 	add	r4, r4, #1
    82a0:	e7823104 	str	r3, [r2, r4, lsl #2]
    82a4:	e3a00096 	mov	r0, #150	; 0x96
    82a8:	ebffff9e 	bl	8128 <waitCycles>
    82ac:	e5953004 	ldr	r3, [r5, #4]
    82b0:	e3a02000 	mov	r2, #0
    82b4:	e5832000 	str	r2, [r3]
    82b8:	e5832004 	str	r2, [r3, #4]
    82bc:	e5832008 	str	r2, [r3, #8]
    82c0:	e8bd8038 	pop	{r3, r4, r5, pc}
    82c4:	0000ad48 	andeq	sl, r0, r8, asr #26

000082c8 <flashValue>:
    82c8:	e92d41f0 	push	{r4, r5, r6, r7, r8, lr}
    82cc:	e2518000 	subs	r8, r1, #0
    82d0:	e1a04000 	mov	r4, r0
    82d4:	08bd81f0 	popeq	{r4, r5, r6, r7, r8, pc}
    82d8:	e59f6064 	ldr	r6, [pc, #100]	; 8344 <flashValue+0x7c>
    82dc:	e3a05000 	mov	r5, #0
    82e0:	e3a07801 	mov	r7, #65536	; 0x10000
    82e4:	e1a03fa4 	lsr	r3, r4, #31
    82e8:	e0842003 	add	r2, r4, r3
    82ec:	e2022001 	and	r2, r2, #1
    82f0:	e0633002 	rsb	r3, r3, r2
    82f4:	e3530001 	cmp	r3, #1
    82f8:	e5963000 	ldr	r3, [r6]
    82fc:	e5962008 	ldr	r2, [r6, #8]
    8300:	e5931004 	ldr	r1, [r3, #4]
    8304:	e59f003c 	ldr	r0, [pc, #60]	; 8348 <flashValue+0x80>
    8308:	e3c11707 	bic	r1, r1, #1835008	; 0x1c0000
    830c:	e3811701 	orr	r1, r1, #262144	; 0x40000
    8310:	059f0034 	ldreq	r0, [pc, #52]	; 834c <flashValue+0x84>
    8314:	e5831004 	str	r1, [r3, #4]
    8318:	e5827000 	str	r7, [r2]
    831c:	ebffff85 	bl	8138 <wait>
    8320:	e596300c 	ldr	r3, [r6, #12]
    8324:	e59f0024 	ldr	r0, [pc, #36]	; 8350 <flashValue+0x88>
    8328:	e5837000 	str	r7, [r3]
    832c:	e2855001 	add	r5, r5, #1
    8330:	ebffff80 	bl	8138 <wait>
    8334:	e1550008 	cmp	r5, r8
    8338:	e1a040c4 	asr	r4, r4, #1
    833c:	baffffe8 	blt	82e4 <flashValue+0x1c>
    8340:	e8bd81f0 	pop	{r4, r5, r6, r7, r8, pc}
    8344:	0000ad48 	andeq	sl, r0, r8, asr #26
    8348:	0003d090 	muleq	r3, r0, r0
    834c:	0016e360 	andseq	lr, r6, r0, ror #6
    8350:	000b71b0 			; <UNDEFINED> instruction: 0x000b71b0

00008354 <gnrKIrqHandler>:
    8354:	e92d4030 	push	{r4, r5, lr}
    8358:	e59f4180 	ldr	r4, [pc, #384]	; 84e0 <gnrKIrqHandler+0x18c>
    835c:	e24dd014 	sub	sp, sp, #20
    8360:	e5943000 	ldr	r3, [r4]
    8364:	e3530001 	cmp	r3, #1
    8368:	0a000049 	beq	8494 <gnrKIrqHandler+0x140>
    836c:	e5943000 	ldr	r3, [r4]
    8370:	e59f516c 	ldr	r5, [pc, #364]	; 84e4 <gnrKIrqHandler+0x190>
    8374:	e3530005 	cmp	r3, #5
    8378:	e1d530b0 	ldrh	r3, [r5]
    837c:	0a00000e 	beq	83bc <gnrKIrqHandler+0x68>
    8380:	e3530095 	cmp	r3, #149	; 0x95
    8384:	8a00000e 	bhi	83c4 <gnrKIrqHandler+0x70>
    8388:	e5943000 	ldr	r3, [r4]
    838c:	e3530000 	cmp	r3, #0
    8390:	0a000029 	beq	843c <gnrKIrqHandler+0xe8>
    8394:	e5943000 	ldr	r3, [r4]
    8398:	e3530004 	cmp	r3, #4
    839c:	0a00002d 	beq	8458 <gnrKIrqHandler+0x104>
    83a0:	e5943000 	ldr	r3, [r4]
    83a4:	e3530008 	cmp	r3, #8
    83a8:	0a000036 	beq	8488 <gnrKIrqHandler+0x134>
    83ac:	e3a03010 	mov	r3, #16
    83b0:	e5843000 	str	r3, [r4]
    83b4:	e28dd014 	add	sp, sp, #20
    83b8:	e8bd8030 	pop	{r4, r5, pc}
    83bc:	e35300df 	cmp	r3, #223	; 0xdf
    83c0:	9a00003a 	bls	84b0 <gnrKIrqHandler+0x15c>
    83c4:	e59f311c 	ldr	r3, [pc, #284]	; 84e8 <gnrKIrqHandler+0x194>
    83c8:	e59f011c 	ldr	r0, [pc, #284]	; 84ec <gnrKIrqHandler+0x198>
    83cc:	e5932000 	ldr	r2, [r3]
    83d0:	e2822001 	add	r2, r2, #1
    83d4:	e5832000 	str	r2, [r3]
    83d8:	ebffff56 	bl	8138 <wait>
    83dc:	e1d500b0 	ldrh	r0, [r5]
    83e0:	e1d530b4 	ldrh	r3, [r5, #4]
    83e4:	e1d520b2 	ldrh	r2, [r5, #2]
    83e8:	e0801003 	add	r1, r0, r3
    83ec:	e0833002 	add	r3, r3, r2
    83f0:	e2411001 	sub	r1, r1, #1
    83f4:	e2433001 	sub	r3, r3, #1
    83f8:	e3a0e002 	mov	lr, #2
    83fc:	e3a0c013 	mov	ip, #19
    8400:	e1a01801 	lsl	r1, r1, #16
    8404:	e1a03803 	lsl	r3, r3, #16
    8408:	e3a0500d 	mov	r5, #13
    840c:	e1a03823 	lsr	r3, r3, #16
    8410:	e1a01821 	lsr	r1, r1, #16
    8414:	e88d4020 	stm	sp, {r5, lr}
    8418:	e58dc008 	str	ip, [sp, #8]
    841c:	eb000438 	bl	9504 <lcdFillWindow>
    8420:	e59f00bc 	ldr	r0, [pc, #188]	; 84e4 <gnrKIrqHandler+0x190>
    8424:	e3a01032 	mov	r1, #50	; 0x32
    8428:	e3a02098 	mov	r2, #152	; 0x98
    842c:	eb000462 	bl	95bc <objectDraw>
    8430:	e5943000 	ldr	r3, [r4]
    8434:	e3530000 	cmp	r3, #0
    8438:	1affffd5 	bne	8394 <gnrKIrqHandler+0x40>
    843c:	e3a0001e 	mov	r0, #30
    8440:	e3a0100a 	mov	r1, #10
    8444:	e3a02096 	mov	r2, #150	; 0x96
    8448:	eb000395 	bl	92a4 <lcdDrawChar>
    844c:	e5943000 	ldr	r3, [r4]
    8450:	e3530004 	cmp	r3, #4
    8454:	1affffd1 	bne	83a0 <gnrKIrqHandler+0x4c>
    8458:	e3a0100d 	mov	r1, #13
    845c:	e3a02002 	mov	r2, #2
    8460:	e3a03013 	mov	r3, #19
    8464:	e88d000e 	stm	sp, {r1, r2, r3}
    8468:	e3a0001e 	mov	r0, #30
    846c:	e3a0301a 	mov	r3, #26
    8470:	e3a0102e 	mov	r1, #46	; 0x2e
    8474:	e3a0200a 	mov	r2, #10
    8478:	eb000421 	bl	9504 <lcdFillWindow>
    847c:	e5943000 	ldr	r3, [r4]
    8480:	e3530008 	cmp	r3, #8
    8484:	1affffc8 	bne	83ac <gnrKIrqHandler+0x58>
    8488:	e59f0060 	ldr	r0, [pc, #96]	; 84f0 <gnrKIrqHandler+0x19c>
    848c:	eb0005e9 	bl	9c38 <timerSetMatch>
    8490:	eaffffc5 	b	83ac <gnrKIrqHandler+0x58>
    8494:	e59f5048 	ldr	r5, [pc, #72]	; 84e4 <gnrKIrqHandler+0x190>
    8498:	e1d530b0 	ldrh	r3, [r5]
    849c:	e3530000 	cmp	r3, #0
    84a0:	1a000008 	bne	84c8 <gnrKIrqHandler+0x174>
    84a4:	e5943000 	ldr	r3, [r4]
    84a8:	e3530005 	cmp	r3, #5
    84ac:	1affffb5 	bne	8388 <gnrKIrqHandler+0x34>
    84b0:	e59f002c 	ldr	r0, [pc, #44]	; 84e4 <gnrKIrqHandler+0x190>
    84b4:	eb0004b5 	bl	9790 <objectMoveDown>
    84b8:	e59f0034 	ldr	r0, [pc, #52]	; 84f4 <gnrKIrqHandler+0x1a0>
    84bc:	ebffff1d 	bl	8138 <wait>
    84c0:	e1d530b0 	ldrh	r3, [r5]
    84c4:	eaffffad 	b	8380 <gnrKIrqHandler+0x2c>
    84c8:	e1a00005 	mov	r0, r5
    84cc:	eb000461 	bl	9658 <objectMoveUp>
    84d0:	e59f001c 	ldr	r0, [pc, #28]	; 84f4 <gnrKIrqHandler+0x1a0>
    84d4:	ebffff17 	bl	8138 <wait>
    84d8:	e1d530b0 	ldrh	r3, [r5]
    84dc:	eaffffa7 	b	8380 <gnrKIrqHandler+0x2c>
    84e0:	0000ad80 	andeq	sl, r0, r0, lsl #27
    84e4:	0000ad60 	andeq	sl, r0, r0, ror #26
    84e8:	0000b9b8 			; <UNDEFINED> instruction: 0x0000b9b8
    84ec:	0007a120 	andeq	sl, r7, r0, lsr #2
    84f0:	00002648 	andeq	r2, r0, r8, asr #12
    84f4:	000005dc 	ldrdeq	r0, [r0], -ip

000084f8 <gnrTIrqHandler>:
    84f8:	e92d41f0 	push	{r4, r5, r6, r7, r8, lr}
    84fc:	e59f4200 	ldr	r4, [pc, #512]	; 8704 <gnrTIrqHandler+0x20c>
    8500:	e24dd010 	sub	sp, sp, #16
    8504:	e5943004 	ldr	r3, [r4, #4]
    8508:	e59f01f8 	ldr	r0, [pc, #504]	; 8708 <gnrTIrqHandler+0x210>
    850c:	e3530000 	cmp	r3, #0
    8510:	1a000037 	bne	85f4 <gnrTIrqHandler+0xfc>
    8514:	eb000529 	bl	99c0 <objectMoveLeft>
    8518:	e59f61ec 	ldr	r6, [pc, #492]	; 870c <gnrTIrqHandler+0x214>
    851c:	e1d630be 	ldrh	r3, [r6, #14]
    8520:	e353000a 	cmp	r3, #10
    8524:	03a03001 	moveq	r3, #1
    8528:	05843004 	streq	r3, [r4, #4]
    852c:	0a000004 	beq	8544 <gnrTIrqHandler+0x4c>
    8530:	e1d621b0 	ldrh	r2, [r6, #16]
    8534:	e2622f4d 	rsb	r2, r2, #308	; 0x134
    8538:	e2822002 	add	r2, r2, #2
    853c:	e1530002 	cmp	r3, r2
    8540:	0a000069 	beq	86ec <gnrTIrqHandler+0x1f4>
    8544:	e59f51c0 	ldr	r5, [pc, #448]	; 870c <gnrTIrqHandler+0x214>
    8548:	e1a00005 	mov	r0, r5
    854c:	e285100c 	add	r1, r5, #12
    8550:	eb000568 	bl	9af8 <detectCollision>
    8554:	e3500000 	cmp	r0, #0
    8558:	1a000048 	bne	8680 <gnrTIrqHandler+0x188>
    855c:	e5943008 	ldr	r3, [r4, #8]
    8560:	e59f219c 	ldr	r2, [pc, #412]	; 8704 <gnrTIrqHandler+0x20c>
    8564:	e3530004 	cmp	r3, #4
    8568:	ca000002 	bgt	8578 <gnrTIrqHandler+0x80>
    856c:	e5923000 	ldr	r3, [r2]
    8570:	e3530004 	cmp	r3, #4
    8574:	da00001c 	ble	85ec <gnrTIrqHandler+0xf4>
    8578:	e5942008 	ldr	r2, [r4, #8]
    857c:	e5943000 	ldr	r3, [r4]
    8580:	e59f5188 	ldr	r5, [pc, #392]	; 8710 <gnrTIrqHandler+0x218>
    8584:	e1520003 	cmp	r2, r3
    8588:	e3a03000 	mov	r3, #0
    858c:	e3a0203f 	mov	r2, #63	; 0x3f
    8590:	e3a00070 	mov	r0, #112	; 0x70
    8594:	e5c52000 	strb	r2, [r5]
    8598:	e5c53002 	strb	r3, [r5, #2]
    859c:	e5c53001 	strb	r3, [r5, #1]
    85a0:	e59f715c 	ldr	r7, [pc, #348]	; 8704 <gnrTIrqHandler+0x20c>
    85a4:	aa000014 	bge	85fc <gnrTIrqHandler+0x104>
    85a8:	e3a01038 	mov	r1, #56	; 0x38
    85ac:	e59f2160 	ldr	r2, [pc, #352]	; 8714 <gnrTIrqHandler+0x21c>
    85b0:	eb0003ae 	bl	9470 <lcdPrint>
    85b4:	e59f015c 	ldr	r0, [pc, #348]	; 8718 <gnrTIrqHandler+0x220>
    85b8:	ebfffede 	bl	8138 <wait>
    85bc:	e3a0100d 	mov	r1, #13
    85c0:	e3a02002 	mov	r2, #2
    85c4:	e3a03013 	mov	r3, #19
    85c8:	e88d000e 	stm	sp, {r1, r2, r3}
    85cc:	e3a00070 	mov	r0, #112	; 0x70
    85d0:	e3a03f42 	mov	r3, #264	; 0x108
    85d4:	e3a01080 	mov	r1, #128	; 0x80
    85d8:	e3a02038 	mov	r2, #56	; 0x38
    85dc:	eb0003c8 	bl	9504 <lcdFillWindow>
    85e0:	e3a03000 	mov	r3, #0
    85e4:	e5843000 	str	r3, [r4]
    85e8:	e5843008 	str	r3, [r4, #8]
    85ec:	e28dd010 	add	sp, sp, #16
    85f0:	e8bd81f0 	pop	{r4, r5, r6, r7, r8, pc}
    85f4:	eb0004ab 	bl	98a8 <objectMoveRight>
    85f8:	eaffffc6 	b	8518 <gnrTIrqHandler+0x20>
    85fc:	e3a01060 	mov	r1, #96	; 0x60
    8600:	e59f2114 	ldr	r2, [pc, #276]	; 871c <gnrTIrqHandler+0x224>
    8604:	eb000399 	bl	9470 <lcdPrint>
    8608:	e3a08013 	mov	r8, #19
    860c:	e3a0200d 	mov	r2, #13
    8610:	e3a03002 	mov	r3, #2
    8614:	e88d000c 	stm	sp, {r2, r3}
    8618:	e58d8008 	str	r8, [sp, #8]
    861c:	e3a0000a 	mov	r0, #10
    8620:	e3a0101a 	mov	r1, #26
    8624:	e3a0206a 	mov	r2, #106	; 0x6a
    8628:	e3a0307a 	mov	r3, #122	; 0x7a
    862c:	eb0003b4 	bl	9504 <lcdFillWindow>
    8630:	e1d631b0 	ldrh	r3, [r6, #16]
    8634:	e3a0100a 	mov	r1, #10
    8638:	e1530001 	cmp	r3, r1
    863c:	e5c51000 	strb	r1, [r5]
    8640:	8597100c 	ldrhi	r1, [r7, #12]
    8644:	e3a02038 	mov	r2, #56	; 0x38
    8648:	82811001 	addhi	r1, r1, #1
    864c:	e5c52002 	strb	r2, [r5, #2]
    8650:	e59f20b4 	ldr	r2, [pc, #180]	; 870c <gnrTIrqHandler+0x214>
    8654:	8587100c 	strhi	r1, [r7, #12]
    8658:	8243300a 	subhi	r3, r3, #10
    865c:	81c231b0 	strhhi	r3, [r2, #16]
    8660:	e594200c 	ldr	r2, [r4, #12]
    8664:	e3a0000a 	mov	r0, #10
    8668:	e2822030 	add	r2, r2, #48	; 0x30
    866c:	e20220ff 	and	r2, r2, #255	; 0xff
    8670:	e3a0106a 	mov	r1, #106	; 0x6a
    8674:	e5c58001 	strb	r8, [r5, #1]
    8678:	eb000309 	bl	92a4 <lcdDrawChar>
    867c:	eaffffcc 	b	85b4 <gnrTIrqHandler+0xbc>
    8680:	e5943008 	ldr	r3, [r4, #8]
    8684:	e59f0094 	ldr	r0, [pc, #148]	; 8720 <gnrTIrqHandler+0x228>
    8688:	e2833001 	add	r3, r3, #1
    868c:	e5843008 	str	r3, [r4, #8]
    8690:	ebfffea8 	bl	8138 <wait>
    8694:	e1d500b0 	ldrh	r0, [r5]
    8698:	e1d530b4 	ldrh	r3, [r5, #4]
    869c:	e1d520b2 	ldrh	r2, [r5, #2]
    86a0:	e0801003 	add	r1, r0, r3
    86a4:	e0833002 	add	r3, r3, r2
    86a8:	e2411001 	sub	r1, r1, #1
    86ac:	e2433001 	sub	r3, r3, #1
    86b0:	e3a0e002 	mov	lr, #2
    86b4:	e3a0c013 	mov	ip, #19
    86b8:	e3a0700d 	mov	r7, #13
    86bc:	e1a01801 	lsl	r1, r1, #16
    86c0:	e1a03803 	lsl	r3, r3, #16
    86c4:	e1a01821 	lsr	r1, r1, #16
    86c8:	e1a03823 	lsr	r3, r3, #16
    86cc:	e88d4080 	stm	sp, {r7, lr}
    86d0:	e58dc008 	str	ip, [sp, #8]
    86d4:	eb00038a 	bl	9504 <lcdFillWindow>
    86d8:	e1a00005 	mov	r0, r5
    86dc:	e3a01032 	mov	r1, #50	; 0x32
    86e0:	e3a02098 	mov	r2, #152	; 0x98
    86e4:	eb0003b4 	bl	95bc <objectDraw>
    86e8:	eaffff9b 	b	855c <gnrTIrqHandler+0x64>
    86ec:	e5943004 	ldr	r3, [r4, #4]
    86f0:	e59f200c 	ldr	r2, [pc, #12]	; 8704 <gnrTIrqHandler+0x20c>
    86f4:	e3530000 	cmp	r3, #0
    86f8:	13a03000 	movne	r3, #0
    86fc:	15823004 	strne	r3, [r2, #4]
    8700:	eaffff8f 	b	8544 <gnrTIrqHandler+0x4c>
    8704:	0000b9b8 			; <UNDEFINED> instruction: 0x0000b9b8
    8708:	0000ad6c 	andeq	sl, r0, ip, ror #26
    870c:	0000ad60 	andeq	sl, r0, r0, ror #26
    8710:	0000ada8 	andeq	sl, r0, r8, lsr #27
    8714:	0000ba7c 	andeq	fp, r0, ip, ror sl
    8718:	002dc6c0 	eoreq	ip, sp, r0, asr #13
    871c:	0000ba70 	andeq	fp, r0, r0, ror sl
    8720:	0007a120 	andeq	sl, r7, r0, lsr #2

00008724 <greenAndRed>:
    8724:	e92d45f0 	push	{r4, r5, r6, r7, r8, sl, lr}
    8728:	e59f0178 	ldr	r0, [pc, #376]	; 88a8 <greenAndRed+0x184>
    872c:	e59f5178 	ldr	r5, [pc, #376]	; 88ac <greenAndRed+0x188>
    8730:	e59fc178 	ldr	ip, [pc, #376]	; 88b0 <greenAndRed+0x18c>
    8734:	e59f2178 	ldr	r2, [pc, #376]	; 88b4 <greenAndRed+0x190>
    8738:	e59f1178 	ldr	r1, [pc, #376]	; 88b8 <greenAndRed+0x194>
    873c:	e3a06001 	mov	r6, #1
    8740:	e3a03000 	mov	r3, #0
    8744:	e3a0eeaf 	mov	lr, #2800	; 0xaf0
    8748:	e59f416c 	ldr	r4, [pc, #364]	; 88bc <greenAndRed+0x198>
    874c:	e5856004 	str	r6, [r5, #4]
    8750:	e24dd014 	sub	sp, sp, #20
    8754:	e585e010 	str	lr, [r5, #16]
    8758:	e1a06003 	mov	r6, r3
    875c:	e580c000 	str	ip, [r0]
    8760:	e585300c 	str	r3, [r5, #12]
    8764:	e5821000 	str	r1, [r2]
    8768:	e3a0a000 	mov	sl, #0
    876c:	e1a0100a 	mov	r1, sl
    8770:	e3a00020 	mov	r0, #32
    8774:	e5846000 	str	r6, [r4]
    8778:	eb000130 	bl	8c40 <lcdRegWrite>
    877c:	e1a0100a 	mov	r1, sl
    8780:	e3a00021 	mov	r0, #33	; 0x21
    8784:	eb00012d 	bl	8c40 <lcdRegWrite>
    8788:	e5943000 	ldr	r3, [r4]
    878c:	e3530001 	cmp	r3, #1
    8790:	0afffff4 	beq	8768 <greenAndRed+0x44>
    8794:	e3a00b4b 	mov	r0, #76800	; 0x12c00
    8798:	e3a0100d 	mov	r1, #13
    879c:	e3a02002 	mov	r2, #2
    87a0:	e3a03013 	mov	r3, #19
    87a4:	eb000293 	bl	91f8 <lcdPixelsDraw>
    87a8:	e3a0700a 	mov	r7, #10
    87ac:	e59f310c 	ldr	r3, [pc, #268]	; 88c0 <greenAndRed+0x19c>
    87b0:	e59f410c 	ldr	r4, [pc, #268]	; 88c4 <greenAndRed+0x1a0>
    87b4:	e3a0e00d 	mov	lr, #13
    87b8:	e3a0c002 	mov	ip, #2
    87bc:	e3a06013 	mov	r6, #19
    87c0:	e1a00007 	mov	r0, r7
    87c4:	e1a01007 	mov	r1, r7
    87c8:	e59f20f8 	ldr	r2, [pc, #248]	; 88c8 <greenAndRed+0x1a4>
    87cc:	e3a08038 	mov	r8, #56	; 0x38
    87d0:	e5c3e000 	strb	lr, [r3]
    87d4:	e5c3c002 	strb	ip, [r3, #2]
    87d8:	e5c36001 	strb	r6, [r3, #1]
    87dc:	e5c46001 	strb	r6, [r4, #1]
    87e0:	e5c47000 	strb	r7, [r4]
    87e4:	e5c48002 	strb	r8, [r4, #2]
    87e8:	eb000320 	bl	9470 <lcdPrint>
    87ec:	e59f00d8 	ldr	r0, [pc, #216]	; 88cc <greenAndRed+0x1a8>
    87f0:	e3a01032 	mov	r1, #50	; 0x32
    87f4:	e3a02098 	mov	r2, #152	; 0x98
    87f8:	eb00036f 	bl	95bc <objectDraw>
    87fc:	e59f00cc 	ldr	r0, [pc, #204]	; 88d0 <greenAndRed+0x1ac>
    8800:	e1a02007 	mov	r2, r7
    8804:	e3a01096 	mov	r1, #150	; 0x96
    8808:	eb00036b 	bl	95bc <objectDraw>
    880c:	e585a008 	str	sl, [r5, #8]
    8810:	e585a000 	str	sl, [r5]
    8814:	e5950010 	ldr	r0, [r5, #16]
    8818:	eb000506 	bl	9c38 <timerSetMatch>
    881c:	eb00002e 	bl	88dc <irqDisableSec>
    8820:	e5952008 	ldr	r2, [r5, #8]
    8824:	e3a0000a 	mov	r0, #10
    8828:	e2822030 	add	r2, r2, #48	; 0x30
    882c:	e20220ff 	and	r2, r2, #255	; 0xff
    8830:	e3a010f6 	mov	r1, #246	; 0xf6
    8834:	e5c47000 	strb	r7, [r4]
    8838:	e5c48002 	strb	r8, [r4, #2]
    883c:	e5c46001 	strb	r6, [r4, #1]
    8840:	eb000297 	bl	92a4 <lcdDrawChar>
    8844:	e5952000 	ldr	r2, [r5]
    8848:	e3a0c03f 	mov	ip, #63	; 0x3f
    884c:	e2822030 	add	r2, r2, #48	; 0x30
    8850:	e3a03000 	mov	r3, #0
    8854:	e20220ff 	and	r2, r2, #255	; 0xff
    8858:	e59f1074 	ldr	r1, [pc, #116]	; 88d4 <greenAndRed+0x1b0>
    885c:	e3a0000a 	mov	r0, #10
    8860:	e5c4c000 	strb	ip, [r4]
    8864:	e5c43002 	strb	r3, [r4, #2]
    8868:	e5c43001 	strb	r3, [r4, #1]
    886c:	eb00028c 	bl	92a4 <lcdDrawChar>
    8870:	eb000029 	bl	891c <irqEnableSec>
    8874:	e59f005c 	ldr	r0, [pc, #92]	; 88d8 <greenAndRed+0x1b4>
    8878:	ebfffe2a 	bl	8128 <waitCycles>
    887c:	e3a0200d 	mov	r2, #13
    8880:	e3a03002 	mov	r3, #2
    8884:	e88d004c 	stm	sp, {r2, r3, r6}
    8888:	e3a0000a 	mov	r0, #10
    888c:	e3a0101a 	mov	r1, #26
    8890:	e3a020f6 	mov	r2, #246	; 0xf6
    8894:	e2833f4d 	add	r3, r3, #308	; 0x134
    8898:	eb000319 	bl	9504 <lcdFillWindow>
    889c:	e59f0034 	ldr	r0, [pc, #52]	; 88d8 <greenAndRed+0x1b4>
    88a0:	ebfffe20 	bl	8128 <waitCycles>
    88a4:	eaffffdc 	b	881c <greenAndRed+0xf8>
    88a8:	0000b9d4 	ldrdeq	fp, [r0], -r4
    88ac:	0000b9b8 			; <UNDEFINED> instruction: 0x0000b9b8
    88b0:	000084f8 	strdeq	r8, [r0], -r8	; <UNPREDICTABLE>
    88b4:	0000b9cc 	andeq	fp, r0, ip, asr #19
    88b8:	00008354 	andeq	r8, r0, r4, asr r3
    88bc:	0000bb44 	andeq	fp, r0, r4, asr #22
    88c0:	0000b9d0 	ldrdeq	fp, [r0], -r0
    88c4:	0000ada8 	andeq	sl, r0, r8, lsr #27
    88c8:	0000ba8c 	andeq	fp, r0, ip, lsl #21
    88cc:	0000ad60 	andeq	sl, r0, r0, ror #26
    88d0:	0000ad6c 	andeq	sl, r0, ip, ror #26
    88d4:	00000126 	andeq	r0, r0, r6, lsr #2
    88d8:	006fffff 	strdeq	pc, [pc], #-255	; <UNPREDICTABLE>

000088dc <irqDisableSec>:
    88dc:	e59f3030 	ldr	r3, [pc, #48]	; 8914 <irqDisableSec+0x38>
    88e0:	e5932000 	ldr	r2, [r3]
    88e4:	e3520000 	cmp	r2, #0
    88e8:	1a000005 	bne	8904 <irqDisableSec+0x28>
    88ec:	e59f2024 	ldr	r2, [pc, #36]	; 8918 <irqDisableSec+0x3c>
    88f0:	e3a0c81e 	mov	ip, #1966080	; 0x1e0000
    88f4:	e3a01002 	mov	r1, #2
    88f8:	e8920005 	ldm	r2, {r0, r2}
    88fc:	e580c00c 	str	ip, [r0, #12]
    8900:	e582100c 	str	r1, [r2, #12]
    8904:	e5932000 	ldr	r2, [r3]
    8908:	e2822001 	add	r2, r2, #1
    890c:	e5832000 	str	r2, [r3]
    8910:	e12fff1e 	bx	lr
    8914:	0000bae8 	andeq	fp, r0, r8, ror #21
    8918:	0000ad78 	andeq	sl, r0, r8, ror sp

0000891c <irqEnableSec>:
    891c:	e59f3030 	ldr	r3, [pc, #48]	; 8954 <irqEnableSec+0x38>
    8920:	e5932000 	ldr	r2, [r3]
    8924:	e2422001 	sub	r2, r2, #1
    8928:	e5832000 	str	r2, [r3]
    892c:	e5933000 	ldr	r3, [r3]
    8930:	e3530000 	cmp	r3, #0
    8934:	112fff1e 	bxne	lr
    8938:	e59f3018 	ldr	r3, [pc, #24]	; 8958 <irqEnableSec+0x3c>
    893c:	e3a0081e 	mov	r0, #1966080	; 0x1e0000
    8940:	e3a02002 	mov	r2, #2
    8944:	e893000a 	ldm	r3, {r1, r3}
    8948:	e5810000 	str	r0, [r1]
    894c:	e5832000 	str	r2, [r3]
    8950:	e12fff1e 	bx	lr
    8954:	0000bae8 	andeq	fp, r0, r8, ror #21
    8958:	0000ad78 	andeq	sl, r0, r8, ror sp

0000895c <keyboardInit>:
    895c:	e92d41f0 	push	{r4, r5, r6, r7, r8, lr}
    8960:	e59f70f8 	ldr	r7, [pc, #248]	; 8a60 <keyboardInit+0x104>
    8964:	e59f30f8 	ldr	r3, [pc, #248]	; 8a64 <keyboardInit+0x108>
    8968:	e1a04007 	mov	r4, r7
    896c:	e3a01010 	mov	r1, #16
    8970:	e3a02000 	mov	r2, #0
    8974:	e59f80ec 	ldr	r8, [pc, #236]	; 8a68 <keyboardInit+0x10c>
    8978:	e2875004 	add	r5, r7, #4
    897c:	e484100e 	str	r1, [r4], #14
    8980:	e2877016 	add	r7, r7, #22
    8984:	e5832000 	str	r2, [r3]
    8988:	e3a06001 	mov	r6, #1
    898c:	e1d400f0 	ldrsh	r0, [r4]
    8990:	e3a01000 	mov	r1, #0
    8994:	ebfffe19 	bl	8200 <setGpioFunct>
    8998:	e0d400f2 	ldrsh	r0, [r4], #2
    899c:	e3a01001 	mov	r1, #1
    89a0:	ebfffe29 	bl	824c <setPull>
    89a4:	e15430f2 	ldrsh	r3, [r4, #-2]
    89a8:	e5982000 	ldr	r2, [r8]
    89ac:	e3530000 	cmp	r3, #0
    89b0:	e283101f 	add	r1, r3, #31
    89b4:	e1a00fc3 	asr	r0, r3, #31
    89b8:	a1a01003 	movge	r1, r3
    89bc:	e1a00da0 	lsr	r0, r0, #27
    89c0:	e1a012c1 	asr	r1, r1, #5
    89c4:	e2811006 	add	r1, r1, #6
    89c8:	e0833000 	add	r3, r3, r0
    89cc:	e792c101 	ldr	ip, [r2, r1, lsl #2]
    89d0:	e203301f 	and	r3, r3, #31
    89d4:	e0600003 	rsb	r0, r0, r3
    89d8:	e18c0016 	orr	r0, ip, r6, lsl r0
    89dc:	e1540007 	cmp	r4, r7
    89e0:	e7820101 	str	r0, [r2, r1, lsl #2]
    89e4:	1affffe8 	bne	898c <keyboardInit+0x30>
    89e8:	e59f807c 	ldr	r8, [pc, #124]	; 8a6c <keyboardInit+0x110>
    89ec:	e59f707c 	ldr	r7, [pc, #124]	; 8a70 <keyboardInit+0x114>
    89f0:	e3a06001 	mov	r6, #1
    89f4:	e1a04005 	mov	r4, r5
    89f8:	e3a01001 	mov	r1, #1
    89fc:	e1f500f2 	ldrsh	r0, [r5, #2]!
    8a00:	ebfffdfe 	bl	8200 <setGpioFunct>
    8a04:	e1d400f2 	ldrsh	r0, [r4, #2]
    8a08:	e5972000 	ldr	r2, [r7]
    8a0c:	e1a03fc0 	asr	r3, r0, #31
    8a10:	e1a03da3 	lsr	r3, r3, #27
    8a14:	e0801003 	add	r1, r0, r3
    8a18:	e201101f 	and	r1, r1, #31
    8a1c:	e0633001 	rsb	r3, r3, r1
    8a20:	e1a03316 	lsl	r3, r6, r3
    8a24:	e3500000 	cmp	r0, #0
    8a28:	e280101f 	add	r1, r0, #31
    8a2c:	a1a01000 	movge	r1, r0
    8a30:	e1a012c1 	asr	r1, r1, #5
    8a34:	e7823101 	str	r3, [r2, r1, lsl #2]
    8a38:	e3a01001 	mov	r1, #1
    8a3c:	ebfffe02 	bl	824c <setPull>
    8a40:	e1550008 	cmp	r5, r8
    8a44:	1affffea 	bne	89f4 <keyboardInit+0x98>
    8a48:	e59f3024 	ldr	r3, [pc, #36]	; 8a74 <keyboardInit+0x118>
    8a4c:	e3a0281e 	mov	r2, #1966080	; 0x1e0000
    8a50:	e5933000 	ldr	r3, [r3]
    8a54:	e5832000 	str	r2, [r3]
    8a58:	e8bd41f0 	pop	{r4, r5, r6, r7, r8, lr}
    8a5c:	eafffda6 	b	80fc <irqEnable>
    8a60:	0000ad80 	andeq	sl, r0, r0, lsl #27
    8a64:	0000b9cc 	andeq	fp, r0, ip, asr #19
    8a68:	0000ad5c 	andeq	sl, r0, ip, asr sp
    8a6c:	0000ad8c 	andeq	sl, r0, ip, lsl #27
    8a70:	0000ad54 	andeq	sl, r0, r4, asr sp
    8a74:	0000ad78 	andeq	sl, r0, r8, ror sp

00008a78 <kIrqHandler>:
    8a78:	e92d4ff8 	push	{r3, r4, r5, r6, r7, r8, r9, sl, fp, lr}
    8a7c:	e59f519c 	ldr	r5, [pc, #412]	; 8c20 <kIrqHandler+0x1a8>
    8a80:	e3a0b001 	mov	fp, #1
    8a84:	e59f8198 	ldr	r8, [pc, #408]	; 8c24 <kIrqHandler+0x1ac>
    8a88:	e59f9198 	ldr	r9, [pc, #408]	; 8c28 <kIrqHandler+0x1b0>
    8a8c:	e1a06005 	mov	r6, r5
    8a90:	e1a07005 	mov	r7, r5
    8a94:	e1a0a00b 	mov	sl, fp
    8a98:	e3a04001 	mov	r4, #1
    8a9c:	e154000b 	cmp	r4, fp
    8aa0:	e1a03084 	lsl	r3, r4, #1
    8aa4:	e3a01000 	mov	r1, #0
    8aa8:	e2844001 	add	r4, r4, #1
    8aac:	0a000001 	beq	8ab8 <kIrqHandler+0x40>
    8ab0:	e19600f3 	ldrsh	r0, [r6, r3]
    8ab4:	ebfffdd1 	bl	8200 <setGpioFunct>
    8ab8:	e3540005 	cmp	r4, #5
    8abc:	1afffff6 	bne	8a9c <kIrqHandler+0x24>
    8ac0:	e1d700f2 	ldrsh	r0, [r7, #2]
    8ac4:	e3a01001 	mov	r1, #1
    8ac8:	ebfffdcc 	bl	8200 <setGpioFunct>
    8acc:	e1d730f2 	ldrsh	r3, [r7, #2]
    8ad0:	e5981000 	ldr	r1, [r8]
    8ad4:	e1a02fc3 	asr	r2, r3, #31
    8ad8:	e1a02da2 	lsr	r2, r2, #27
    8adc:	e0830002 	add	r0, r3, r2
    8ae0:	e200001f 	and	r0, r0, #31
    8ae4:	e0622000 	rsb	r2, r2, r0
    8ae8:	e1a0221a 	lsl	r2, sl, r2
    8aec:	e283001f 	add	r0, r3, #31
    8af0:	e3530000 	cmp	r3, #0
    8af4:	b1a03000 	movlt	r3, r0
    8af8:	e1a032c3 	asr	r3, r3, #5
    8afc:	e7812103 	str	r2, [r1, r3, lsl #2]
    8b00:	e3a0001e 	mov	r0, #30
    8b04:	ebfffd87 	bl	8128 <waitCycles>
    8b08:	e59f311c 	ldr	r3, [pc, #284]	; 8c2c <kIrqHandler+0x1b4>
    8b0c:	e1a00007 	mov	r0, r7
    8b10:	e5931000 	ldr	r1, [r3]
    8b14:	e1a03084 	lsl	r3, r4, #1
    8b18:	e19630f3 	ldrsh	r3, [r6, r3]
    8b1c:	e59fc10c 	ldr	ip, [pc, #268]	; 8c30 <kIrqHandler+0x1b8>
    8b20:	e3530000 	cmp	r3, #0
    8b24:	e1a02fc3 	asr	r2, r3, #31
    8b28:	e283e01f 	add	lr, r3, #31
    8b2c:	e1a02da2 	lsr	r2, r2, #27
    8b30:	a1a0e003 	movge	lr, r3
    8b34:	e1a0e2ce 	asr	lr, lr, #5
    8b38:	e0833002 	add	r3, r3, r2
    8b3c:	e203301f 	and	r3, r3, #31
    8b40:	e791e10e 	ldr	lr, [r1, lr, lsl #2]
    8b44:	e0622003 	rsb	r2, r2, r3
    8b48:	e1a0223e 	lsr	r2, lr, r2
    8b4c:	e3120001 	tst	r2, #1
    8b50:	1a00002e 	bne	8c10 <kIrqHandler+0x198>
    8b54:	e2844001 	add	r4, r4, #1
    8b58:	e3540009 	cmp	r4, #9
    8b5c:	1affffec 	bne	8b14 <kIrqHandler+0x9c>
    8b60:	e1d030f2 	ldrsh	r3, [r0, #2]
    8b64:	e28bb001 	add	fp, fp, #1
    8b68:	e1a02fc3 	asr	r2, r3, #31
    8b6c:	e1a02da2 	lsr	r2, r2, #27
    8b70:	e0831002 	add	r1, r3, r2
    8b74:	e201101f 	and	r1, r1, #31
    8b78:	e0622001 	rsb	r2, r2, r1
    8b7c:	e1a0221a 	lsl	r2, sl, r2
    8b80:	e283101f 	add	r1, r3, #31
    8b84:	e3530000 	cmp	r3, #0
    8b88:	b1a03001 	movlt	r3, r1
    8b8c:	e5991000 	ldr	r1, [r9]
    8b90:	e1a032c3 	asr	r3, r3, #5
    8b94:	e35b0005 	cmp	fp, #5
    8b98:	e2877002 	add	r7, r7, #2
    8b9c:	e7812103 	str	r2, [r1, r3, lsl #2]
    8ba0:	1affffbc 	bne	8a98 <kIrqHandler+0x20>
    8ba4:	e59f7088 	ldr	r7, [pc, #136]	; 8c34 <kIrqHandler+0x1bc>
    8ba8:	e3a06001 	mov	r6, #1
    8bac:	e1a04005 	mov	r4, r5
    8bb0:	e3a01001 	mov	r1, #1
    8bb4:	e1f500f2 	ldrsh	r0, [r5, #2]!
    8bb8:	ebfffd90 	bl	8200 <setGpioFunct>
    8bbc:	e1d430f2 	ldrsh	r3, [r4, #2]
    8bc0:	e5981000 	ldr	r1, [r8]
    8bc4:	e1a02fc3 	asr	r2, r3, #31
    8bc8:	e1a02da2 	lsr	r2, r2, #27
    8bcc:	e0830002 	add	r0, r3, r2
    8bd0:	e200001f 	and	r0, r0, #31
    8bd4:	e0622000 	rsb	r2, r2, r0
    8bd8:	e1a02216 	lsl	r2, r6, r2
    8bdc:	e3530000 	cmp	r3, #0
    8be0:	e283001f 	add	r0, r3, #31
    8be4:	b1a03000 	movlt	r3, r0
    8be8:	e1a032c3 	asr	r3, r3, #5
    8bec:	e1550007 	cmp	r5, r7
    8bf0:	e7812103 	str	r2, [r1, r3, lsl #2]
    8bf4:	1affffec 	bne	8bac <kIrqHandler+0x134>
    8bf8:	e59f3038 	ldr	r3, [pc, #56]	; 8c38 <kIrqHandler+0x1c0>
    8bfc:	e5933000 	ldr	r3, [r3]
    8c00:	e3530000 	cmp	r3, #0
    8c04:	08bd8ff8 	popeq	{r3, r4, r5, r6, r7, r8, r9, sl, fp, pc}
    8c08:	e12fff33 	blx	r3
    8c0c:	e8bd8ff8 	pop	{r3, r4, r5, r6, r7, r8, r9, sl, fp, pc}
    8c10:	e084410b 	add	r4, r4, fp, lsl #2
    8c14:	e2444009 	sub	r4, r4, #9
    8c18:	e58c4000 	str	r4, [ip]
    8c1c:	eaffffe0 	b	8ba4 <kIrqHandler+0x12c>
    8c20:	0000ad84 	andeq	sl, r0, r4, lsl #27
    8c24:	0000ad54 	andeq	sl, r0, r4, asr sp
    8c28:	0000ad50 	andeq	sl, r0, r0, asr sp
    8c2c:	0000ad58 	andeq	sl, r0, r8, asr sp
    8c30:	0000ad80 	andeq	sl, r0, r0, lsl #27
    8c34:	0000ad8c 	andeq	sl, r0, ip, lsl #27
    8c38:	0000b9cc 	andeq	fp, r0, ip, asr #19

00008c3c <dummy>:
    8c3c:	e12fff1e 	bx	lr

00008c40 <lcdRegWrite>:
    8c40:	e92d4038 	push	{r3, r4, r5, lr}
    8c44:	e59f30b8 	ldr	r3, [pc, #184]	; 8d04 <lcdRegWrite+0xc4>
    8c48:	e1a05000 	mov	r5, r0
    8c4c:	e5933000 	ldr	r3, [r3]
    8c50:	e1a04001 	mov	r4, r1
    8c54:	e12fff33 	blx	r3
    8c58:	e59f30a8 	ldr	r3, [pc, #168]	; 8d08 <lcdRegWrite+0xc8>
    8c5c:	e59f20a8 	ldr	r2, [pc, #168]	; 8d0c <lcdRegWrite+0xcc>
    8c60:	e5933000 	ldr	r3, [r3]
    8c64:	e5922000 	ldr	r2, [r2]
    8c68:	e5931000 	ldr	r1, [r3]
    8c6c:	e3a00070 	mov	r0, #112	; 0x70
    8c70:	e3811080 	orr	r1, r1, #128	; 0x80
    8c74:	e5831000 	str	r1, [r3]
    8c78:	e5820000 	str	r0, [r2]
    8c7c:	e3a01000 	mov	r1, #0
    8c80:	e5920000 	ldr	r0, [r2]
    8c84:	e5821000 	str	r1, [r2]
    8c88:	e5921000 	ldr	r1, [r2]
    8c8c:	e5825000 	str	r5, [r2]
    8c90:	e5921000 	ldr	r1, [r2]
    8c94:	e5930000 	ldr	r0, [r3]
    8c98:	e3100801 	tst	r0, #65536	; 0x10000
    8c9c:	0afffffc 	beq	8c94 <lcdRegWrite+0x54>
    8ca0:	e5931000 	ldr	r1, [r3]
    8ca4:	e3a00072 	mov	r0, #114	; 0x72
    8ca8:	e3c11080 	bic	r1, r1, #128	; 0x80
    8cac:	e5831000 	str	r1, [r3]
    8cb0:	e593c000 	ldr	ip, [r3]
    8cb4:	e1a01424 	lsr	r1, r4, #8
    8cb8:	e38cc080 	orr	ip, ip, #128	; 0x80
    8cbc:	e583c000 	str	ip, [r3]
    8cc0:	e5820000 	str	r0, [r2]
    8cc4:	e5920000 	ldr	r0, [r2]
    8cc8:	e20440ff 	and	r4, r4, #255	; 0xff
    8ccc:	e5821000 	str	r1, [r2]
    8cd0:	e5921000 	ldr	r1, [r2]
    8cd4:	e5824000 	str	r4, [r2]
    8cd8:	e5922000 	ldr	r2, [r2]
    8cdc:	e5932000 	ldr	r2, [r3]
    8ce0:	e3120801 	tst	r2, #65536	; 0x10000
    8ce4:	0afffffc 	beq	8cdc <lcdRegWrite+0x9c>
    8ce8:	e5931000 	ldr	r1, [r3]
    8cec:	e59f201c 	ldr	r2, [pc, #28]	; 8d10 <lcdRegWrite+0xd0>
    8cf0:	e3c11080 	bic	r1, r1, #128	; 0x80
    8cf4:	e5831000 	str	r1, [r3]
    8cf8:	e5923000 	ldr	r3, [r2]
    8cfc:	e12fff33 	blx	r3
    8d00:	e8bd8038 	pop	{r3, r4, r5, pc}
    8d04:	0000bb40 	andeq	fp, r0, r0, asr #22
    8d08:	0000adac 	andeq	sl, r0, ip, lsr #27
    8d0c:	0000adb4 			; <UNDEFINED> instruction: 0x0000adb4
    8d10:	0000bb48 	andeq	fp, r0, r8, asr #22

00008d14 <lcdInit>:
    8d14:	e92d40f8 	push	{r3, r4, r5, r6, r7, lr}
    8d18:	e1a02000 	mov	r2, r0
    8d1c:	e59f325c 	ldr	r3, [pc, #604]	; 8f80 <lcdInit+0x26c>
    8d20:	e3a00001 	mov	r0, #1
    8d24:	e3a04000 	mov	r4, #0
    8d28:	e1a01000 	mov	r1, r0
    8d2c:	e5834000 	str	r4, [r3]
    8d30:	e59f724c 	ldr	r7, [pc, #588]	; 8f84 <lcdInit+0x270>
    8d34:	eb000397 	bl	9b98 <spiInit>
    8d38:	e59fc248 	ldr	ip, [pc, #584]	; 8f88 <lcdInit+0x274>
    8d3c:	e59f2248 	ldr	r2, [pc, #584]	; 8f8c <lcdInit+0x278>
    8d40:	e59f3248 	ldr	r3, [pc, #584]	; 8f90 <lcdInit+0x27c>
    8d44:	e3a01001 	mov	r1, #1
    8d48:	e3a00019 	mov	r0, #25
    8d4c:	e58c3000 	str	r3, [ip]
    8d50:	e5823000 	str	r3, [r2]
    8d54:	ebfffd29 	bl	8200 <setGpioFunct>
    8d58:	e5973000 	ldr	r3, [r7]
    8d5c:	e3a06402 	mov	r6, #33554432	; 0x2000000
    8d60:	e5836000 	str	r6, [r3]
    8d64:	e59f0228 	ldr	r0, [pc, #552]	; 8f94 <lcdInit+0x280>
    8d68:	ebfffcf2 	bl	8138 <wait>
    8d6c:	e59f3224 	ldr	r3, [pc, #548]	; 8f98 <lcdInit+0x284>
    8d70:	e59f0224 	ldr	r0, [pc, #548]	; 8f9c <lcdInit+0x288>
    8d74:	e5933000 	ldr	r3, [r3]
    8d78:	e59f5220 	ldr	r5, [pc, #544]	; 8fa0 <lcdInit+0x28c>
    8d7c:	e5836000 	str	r6, [r3]
    8d80:	ebfffcec 	bl	8138 <wait>
    8d84:	e5973000 	ldr	r3, [r7]
    8d88:	e59f0214 	ldr	r0, [pc, #532]	; 8fa4 <lcdInit+0x290>
    8d8c:	e5836000 	str	r6, [r3]
    8d90:	ebfffce8 	bl	8138 <wait>
    8d94:	e1a00004 	mov	r0, r4
    8d98:	e1a01004 	mov	r1, r4
    8d9c:	ebffffa7 	bl	8c40 <lcdRegWrite>
    8da0:	e1a01004 	mov	r1, r4
    8da4:	e3a00001 	mov	r0, #1
    8da8:	ebffffa4 	bl	8c40 <lcdRegWrite>
    8dac:	e3a00002 	mov	r0, #2
    8db0:	e3a01b01 	mov	r1, #1024	; 0x400
    8db4:	ebffffa1 	bl	8c40 <lcdRegWrite>
    8db8:	e3a00003 	mov	r0, #3
    8dbc:	e59f11e4 	ldr	r1, [pc, #484]	; 8fa8 <lcdInit+0x294>
    8dc0:	ebffff9e 	bl	8c40 <lcdRegWrite>
    8dc4:	e1a01004 	mov	r1, r4
    8dc8:	e3a00004 	mov	r0, #4
    8dcc:	ebffff9b 	bl	8c40 <lcdRegWrite>
    8dd0:	e3a00008 	mov	r0, #8
    8dd4:	e59f11d0 	ldr	r1, [pc, #464]	; 8fac <lcdInit+0x298>
    8dd8:	ebffff98 	bl	8c40 <lcdRegWrite>
    8ddc:	e1a01004 	mov	r1, r4
    8de0:	e3a00009 	mov	r0, #9
    8de4:	ebffff95 	bl	8c40 <lcdRegWrite>
    8de8:	e1a01004 	mov	r1, r4
    8dec:	e3a0000a 	mov	r0, #10
    8df0:	ebffff92 	bl	8c40 <lcdRegWrite>
    8df4:	e3a0000c 	mov	r0, #12
    8df8:	e3a01003 	mov	r1, #3
    8dfc:	ebffff8f 	bl	8c40 <lcdRegWrite>
    8e00:	e1a01004 	mov	r1, r4
    8e04:	e3a0000d 	mov	r0, #13
    8e08:	ebffff8c 	bl	8c40 <lcdRegWrite>
    8e0c:	e1a01004 	mov	r1, r4
    8e10:	e3a0000f 	mov	r0, #15
    8e14:	ebffff89 	bl	8c40 <lcdRegWrite>
    8e18:	e1a00005 	mov	r0, r5
    8e1c:	ebfffcc5 	bl	8138 <wait>
    8e20:	e59f1188 	ldr	r1, [pc, #392]	; 8fb0 <lcdInit+0x29c>
    8e24:	e3a00007 	mov	r0, #7
    8e28:	ebffff84 	bl	8c40 <lcdRegWrite>
    8e2c:	e1a00005 	mov	r0, r5
    8e30:	ebfffcc0 	bl	8138 <wait>
    8e34:	e3a00010 	mov	r0, #16
    8e38:	e3a01d43 	mov	r1, #4288	; 0x10c0
    8e3c:	ebffff7f 	bl	8c40 <lcdRegWrite>
    8e40:	e3a00011 	mov	r0, #17
    8e44:	e3a01007 	mov	r1, #7
    8e48:	ebffff7c 	bl	8c40 <lcdRegWrite>
    8e4c:	e3a00012 	mov	r0, #18
    8e50:	e3a01e11 	mov	r1, #272	; 0x110
    8e54:	ebffff79 	bl	8c40 <lcdRegWrite>
    8e58:	e3a00013 	mov	r0, #19
    8e5c:	e3a01c0b 	mov	r1, #2816	; 0xb00
    8e60:	ebffff76 	bl	8c40 <lcdRegWrite>
    8e64:	e1a01004 	mov	r1, r4
    8e68:	e3a00029 	mov	r0, #41	; 0x29
    8e6c:	ebffff73 	bl	8c40 <lcdRegWrite>
    8e70:	e3a0002b 	mov	r0, #43	; 0x2b
    8e74:	e3a01010 	mov	r1, #16
    8e78:	ebffff70 	bl	8c40 <lcdRegWrite>
    8e7c:	e1a01004 	mov	r1, r4
    8e80:	e3a00050 	mov	r0, #80	; 0x50
    8e84:	ebffff6d 	bl	8c40 <lcdRegWrite>
    8e88:	e3a00051 	mov	r0, #81	; 0x51
    8e8c:	e3a010ef 	mov	r1, #239	; 0xef
    8e90:	ebffff6a 	bl	8c40 <lcdRegWrite>
    8e94:	e1a01004 	mov	r1, r4
    8e98:	e3a00052 	mov	r0, #82	; 0x52
    8e9c:	ebffff67 	bl	8c40 <lcdRegWrite>
    8ea0:	e59f110c 	ldr	r1, [pc, #268]	; 8fb4 <lcdInit+0x2a0>
    8ea4:	e3a00053 	mov	r0, #83	; 0x53
    8ea8:	ebffff64 	bl	8c40 <lcdRegWrite>
    8eac:	e1a00005 	mov	r0, r5
    8eb0:	ebfffca0 	bl	8138 <wait>
    8eb4:	e3a00060 	mov	r0, #96	; 0x60
    8eb8:	e3a01c27 	mov	r1, #9984	; 0x2700
    8ebc:	ebffff5f 	bl	8c40 <lcdRegWrite>
    8ec0:	e3a00061 	mov	r0, #97	; 0x61
    8ec4:	e3a01001 	mov	r1, #1
    8ec8:	ebffff5c 	bl	8c40 <lcdRegWrite>
    8ecc:	e1a01004 	mov	r1, r4
    8ed0:	e3a0006a 	mov	r0, #106	; 0x6a
    8ed4:	ebffff59 	bl	8c40 <lcdRegWrite>
    8ed8:	e1a01004 	mov	r1, r4
    8edc:	e3a00080 	mov	r0, #128	; 0x80
    8ee0:	ebffff56 	bl	8c40 <lcdRegWrite>
    8ee4:	e1a01004 	mov	r1, r4
    8ee8:	e3a00081 	mov	r0, #129	; 0x81
    8eec:	ebffff53 	bl	8c40 <lcdRegWrite>
    8ef0:	e1a01004 	mov	r1, r4
    8ef4:	e3a00082 	mov	r0, #130	; 0x82
    8ef8:	ebffff50 	bl	8c40 <lcdRegWrite>
    8efc:	e1a01004 	mov	r1, r4
    8f00:	e3a00083 	mov	r0, #131	; 0x83
    8f04:	ebffff4d 	bl	8c40 <lcdRegWrite>
    8f08:	e1a01004 	mov	r1, r4
    8f0c:	e3a00084 	mov	r0, #132	; 0x84
    8f10:	ebffff4a 	bl	8c40 <lcdRegWrite>
    8f14:	e1a01004 	mov	r1, r4
    8f18:	e3a00085 	mov	r0, #133	; 0x85
    8f1c:	ebffff47 	bl	8c40 <lcdRegWrite>
    8f20:	e3a00090 	mov	r0, #144	; 0x90
    8f24:	e3a01010 	mov	r1, #16
    8f28:	ebffff44 	bl	8c40 <lcdRegWrite>
    8f2c:	e1a01004 	mov	r1, r4
    8f30:	e3a00092 	mov	r0, #146	; 0x92
    8f34:	ebffff41 	bl	8c40 <lcdRegWrite>
    8f38:	e3a00093 	mov	r0, #147	; 0x93
    8f3c:	e3a01001 	mov	r1, #1
    8f40:	ebffff3e 	bl	8c40 <lcdRegWrite>
    8f44:	e3a00095 	mov	r0, #149	; 0x95
    8f48:	e3a01e11 	mov	r1, #272	; 0x110
    8f4c:	ebffff3b 	bl	8c40 <lcdRegWrite>
    8f50:	e1a01004 	mov	r1, r4
    8f54:	e3a00097 	mov	r0, #151	; 0x97
    8f58:	ebffff38 	bl	8c40 <lcdRegWrite>
    8f5c:	e1a01004 	mov	r1, r4
    8f60:	e3a00098 	mov	r0, #152	; 0x98
    8f64:	ebffff35 	bl	8c40 <lcdRegWrite>
    8f68:	e3a00007 	mov	r0, #7
    8f6c:	e59f1044 	ldr	r1, [pc, #68]	; 8fb8 <lcdInit+0x2a4>
    8f70:	ebffff32 	bl	8c40 <lcdRegWrite>
    8f74:	e59f0040 	ldr	r0, [pc, #64]	; 8fbc <lcdInit+0x2a8>
    8f78:	e8bd40f8 	pop	{r3, r4, r5, r6, r7, lr}
    8f7c:	eafffc6d 	b	8138 <wait>
    8f80:	0000bb44 	andeq	fp, r0, r4, asr #22
    8f84:	0000ad54 	andeq	sl, r0, r4, asr sp
    8f88:	0000bb40 	andeq	fp, r0, r0, asr #22
    8f8c:	0000bb48 	andeq	fp, r0, r8, asr #22
    8f90:	00008c3c 	andeq	r8, r0, ip, lsr ip
    8f94:	00002710 	andeq	r2, r0, r0, lsl r7
    8f98:	0000ad50 	andeq	sl, r0, r0, asr sp
    8f9c:	000005dc 	ldrdeq	r0, [r0], -ip
    8fa0:	0000c350 	andeq	ip, r0, r0, asr r3
    8fa4:	00030d40 	andeq	r0, r3, r0, asr #26
    8fa8:	0000d038 	andeq	sp, r0, r8, lsr r0
    8fac:	00000202 	andeq	r0, r0, r2, lsl #4
    8fb0:	00000101 	andeq	r0, r0, r1, lsl #2
    8fb4:	0000013f 	andeq	r0, r0, pc, lsr r1
    8fb8:	00000131 	andeq	r0, r0, r1, lsr r1
    8fbc:	0007a120 	andeq	sl, r7, r0, lsr #2

00008fc0 <lcdRegRead>:
    8fc0:	e59f30e8 	ldr	r3, [pc, #232]	; 90b0 <lcdRegRead+0xf0>
    8fc4:	e92d4010 	push	{r4, lr}
    8fc8:	e5933000 	ldr	r3, [r3]
    8fcc:	e1a04000 	mov	r4, r0
    8fd0:	e12fff33 	blx	r3
    8fd4:	e59f20d8 	ldr	r2, [pc, #216]	; 90b4 <lcdRegRead+0xf4>
    8fd8:	e59f30d8 	ldr	r3, [pc, #216]	; 90b8 <lcdRegRead+0xf8>
    8fdc:	e5922000 	ldr	r2, [r2]
    8fe0:	e5933000 	ldr	r3, [r3]
    8fe4:	e5921000 	ldr	r1, [r2]
    8fe8:	e3a00070 	mov	r0, #112	; 0x70
    8fec:	e3811080 	orr	r1, r1, #128	; 0x80
    8ff0:	e5821000 	str	r1, [r2]
    8ff4:	e5830000 	str	r0, [r3]
    8ff8:	e3a01000 	mov	r1, #0
    8ffc:	e5930000 	ldr	r0, [r3]
    9000:	e5831000 	str	r1, [r3]
    9004:	e5931000 	ldr	r1, [r3]
    9008:	e5834000 	str	r4, [r3]
    900c:	e5931000 	ldr	r1, [r3]
    9010:	e5921000 	ldr	r1, [r2]
    9014:	e3110801 	tst	r1, #65536	; 0x10000
    9018:	0afffffc 	beq	9010 <lcdRegRead+0x50>
    901c:	e5921000 	ldr	r1, [r2]
    9020:	e3a00073 	mov	r0, #115	; 0x73
    9024:	e3c11080 	bic	r1, r1, #128	; 0x80
    9028:	e5821000 	str	r1, [r2]
    902c:	e592c000 	ldr	ip, [r2]
    9030:	e3a01000 	mov	r1, #0
    9034:	e38cc080 	orr	ip, ip, #128	; 0x80
    9038:	e582c000 	str	ip, [r2]
    903c:	e5830000 	str	r0, [r3]
    9040:	e5930000 	ldr	r0, [r3]
    9044:	e5831000 	str	r1, [r3]
    9048:	e5930000 	ldr	r0, [r3]
    904c:	e5831000 	str	r1, [r3]
    9050:	e5930000 	ldr	r0, [r3]
    9054:	e5831000 	str	r1, [r3]
    9058:	e5930000 	ldr	r0, [r3]
    905c:	e5831000 	str	r1, [r3]
    9060:	e5931000 	ldr	r1, [r3]
    9064:	e5921000 	ldr	r1, [r2]
    9068:	e3110801 	tst	r1, #65536	; 0x10000
    906c:	0afffffc 	beq	9064 <lcdRegRead+0xa4>
    9070:	e5931000 	ldr	r1, [r3]
    9074:	e5931000 	ldr	r1, [r3]
    9078:	e5930000 	ldr	r0, [r3]
    907c:	e5934000 	ldr	r4, [r3]
    9080:	e5921000 	ldr	r1, [r2]
    9084:	e20440ff 	and	r4, r4, #255	; 0xff
    9088:	e0844400 	add	r4, r4, r0, lsl #8
    908c:	e59f3028 	ldr	r3, [pc, #40]	; 90bc <lcdRegRead+0xfc>
    9090:	e3811030 	orr	r1, r1, #48	; 0x30
    9094:	e1a04804 	lsl	r4, r4, #16
    9098:	e1a04824 	lsr	r4, r4, #16
    909c:	e5821000 	str	r1, [r2]
    90a0:	e5933000 	ldr	r3, [r3]
    90a4:	e12fff33 	blx	r3
    90a8:	e1a00004 	mov	r0, r4
    90ac:	e8bd8010 	pop	{r4, pc}
    90b0:	0000bb40 	andeq	fp, r0, r0, asr #22
    90b4:	0000adac 	andeq	sl, r0, ip, lsr #27
    90b8:	0000adb4 			; <UNDEFINED> instruction: 0x0000adb4
    90bc:	0000bb48 	andeq	fp, r0, r8, asr #22

000090c0 <lcdOpenGRAM>:
    90c0:	e92d4008 	push	{r3, lr}
    90c4:	e59f3078 	ldr	r3, [pc, #120]	; 9144 <lcdOpenGRAM+0x84>
    90c8:	e5933000 	ldr	r3, [r3]
    90cc:	e12fff33 	blx	r3
    90d0:	e59f2070 	ldr	r2, [pc, #112]	; 9148 <lcdOpenGRAM+0x88>
    90d4:	e59f3070 	ldr	r3, [pc, #112]	; 914c <lcdOpenGRAM+0x8c>
    90d8:	e5922000 	ldr	r2, [r2]
    90dc:	e5933000 	ldr	r3, [r3]
    90e0:	e5920000 	ldr	r0, [r2]
    90e4:	e3a01070 	mov	r1, #112	; 0x70
    90e8:	e3800080 	orr	r0, r0, #128	; 0x80
    90ec:	e5820000 	str	r0, [r2]
    90f0:	e5831000 	str	r1, [r3]
    90f4:	e3a00000 	mov	r0, #0
    90f8:	e5931000 	ldr	r1, [r3]
    90fc:	e5830000 	str	r0, [r3]
    9100:	e3a01022 	mov	r1, #34	; 0x22
    9104:	e5930000 	ldr	r0, [r3]
    9108:	e5831000 	str	r1, [r3]
    910c:	e5931000 	ldr	r1, [r3]
    9110:	e5921000 	ldr	r1, [r2]
    9114:	e3110801 	tst	r1, #65536	; 0x10000
    9118:	0afffffc 	beq	9110 <lcdOpenGRAM+0x50>
    911c:	e5920000 	ldr	r0, [r2]
    9120:	e3a01072 	mov	r1, #114	; 0x72
    9124:	e3c00080 	bic	r0, r0, #128	; 0x80
    9128:	e5820000 	str	r0, [r2]
    912c:	e5920000 	ldr	r0, [r2]
    9130:	e3800080 	orr	r0, r0, #128	; 0x80
    9134:	e5820000 	str	r0, [r2]
    9138:	e5831000 	str	r1, [r3]
    913c:	e5933000 	ldr	r3, [r3]
    9140:	e8bd8008 	pop	{r3, pc}
    9144:	0000bb40 	andeq	fp, r0, r0, asr #22
    9148:	0000adac 	andeq	sl, r0, ip, lsr #27
    914c:	0000adb4 			; <UNDEFINED> instruction: 0x0000adb4

00009150 <lcdCloseGRAM>:
    9150:	e92d4008 	push	{r3, lr}
    9154:	e59f3028 	ldr	r3, [pc, #40]	; 9184 <lcdCloseGRAM+0x34>
    9158:	e5933000 	ldr	r3, [r3]
    915c:	e5932000 	ldr	r2, [r3]
    9160:	e3120801 	tst	r2, #65536	; 0x10000
    9164:	0afffffc 	beq	915c <lcdCloseGRAM+0xc>
    9168:	e5931000 	ldr	r1, [r3]
    916c:	e59f2014 	ldr	r2, [pc, #20]	; 9188 <lcdCloseGRAM+0x38>
    9170:	e3c11080 	bic	r1, r1, #128	; 0x80
    9174:	e5831000 	str	r1, [r3]
    9178:	e5923000 	ldr	r3, [r2]
    917c:	e12fff33 	blx	r3
    9180:	e8bd8008 	pop	{r3, pc}
    9184:	0000adac 	andeq	sl, r0, ip, lsr #27
    9188:	0000bb48 	andeq	fp, r0, r8, asr #22

0000918c <lcdSetWindow>:
    918c:	e92d45f8 	push	{r3, r4, r5, r6, r7, r8, sl, lr}
    9190:	e1a02b82 	lsl	r2, r2, #23
    9194:	e1a03b83 	lsl	r3, r3, #23
    9198:	e59f4054 	ldr	r4, [pc, #84]	; 91f4 <lcdSetWindow+0x68>
    919c:	e1a0aba2 	lsr	sl, r2, #23
    91a0:	e1a08ba3 	lsr	r8, r3, #23
    91a4:	e20070ff 	and	r7, r0, #255	; 0xff
    91a8:	e20160ff 	and	r6, r1, #255	; 0xff
    91ac:	e3a05000 	mov	r5, #0
    91b0:	e3a00050 	mov	r0, #80	; 0x50
    91b4:	e1a01007 	mov	r1, r7
    91b8:	e5845000 	str	r5, [r4]
    91bc:	ebfffe9f 	bl	8c40 <lcdRegWrite>
    91c0:	e3a00051 	mov	r0, #81	; 0x51
    91c4:	e1a01006 	mov	r1, r6
    91c8:	ebfffe9c 	bl	8c40 <lcdRegWrite>
    91cc:	e3a00052 	mov	r0, #82	; 0x52
    91d0:	e1a0100a 	mov	r1, sl
    91d4:	ebfffe99 	bl	8c40 <lcdRegWrite>
    91d8:	e3a00053 	mov	r0, #83	; 0x53
    91dc:	e1a01008 	mov	r1, r8
    91e0:	ebfffe96 	bl	8c40 <lcdRegWrite>
    91e4:	e5943000 	ldr	r3, [r4]
    91e8:	e3530001 	cmp	r3, #1
    91ec:	0affffef 	beq	91b0 <lcdSetWindow+0x24>
    91f0:	e8bd85f8 	pop	{r3, r4, r5, r6, r7, r8, sl, pc}
    91f4:	0000bb44 	andeq	fp, r0, r4, asr #22

000091f8 <lcdPixelsDraw>:
    91f8:	e1a010a1 	lsr	r1, r1, #1
    91fc:	e92d4070 	push	{r4, r5, r6, lr}
    9200:	e1a05181 	lsl	r5, r1, #3
    9204:	e1a06282 	lsl	r6, r2, #5
    9208:	e08630a3 	add	r3, r6, r3, lsr #1
    920c:	e08521a2 	add	r2, r5, r2, lsr #3
    9210:	e1a04000 	mov	r4, r0
    9214:	e20250ff 	and	r5, r2, #255	; 0xff
    9218:	e20360ff 	and	r6, r3, #255	; 0xff
    921c:	ebffffa7 	bl	90c0 <lcdOpenGRAM>
    9220:	e3540000 	cmp	r4, #0
    9224:	0a000018 	beq	928c <lcdPixelsDraw+0x94>
    9228:	e59f3068 	ldr	r3, [pc, #104]	; 9298 <lcdPixelsDraw+0xa0>
    922c:	e59f2068 	ldr	r2, [pc, #104]	; 929c <lcdPixelsDraw+0xa4>
    9230:	e5933000 	ldr	r3, [r3]
    9234:	e592c000 	ldr	ip, [r2]
    9238:	e3a01000 	mov	r1, #0
    923c:	e5835000 	str	r5, [r3]
    9240:	e5932000 	ldr	r2, [r3]
    9244:	e5836000 	str	r6, [r3]
    9248:	e5932000 	ldr	r2, [r3]
    924c:	e59c2000 	ldr	r2, [ip]
    9250:	e3120801 	tst	r2, #65536	; 0x10000
    9254:	0afffffc 	beq	924c <lcdPixelsDraw+0x54>
    9258:	e2811001 	add	r1, r1, #1
    925c:	e1510004 	cmp	r1, r4
    9260:	1afffff5 	bne	923c <lcdPixelsDraw+0x44>
    9264:	e59c3000 	ldr	r3, [ip]
    9268:	e3130801 	tst	r3, #65536	; 0x10000
    926c:	0afffffc 	beq	9264 <lcdPixelsDraw+0x6c>
    9270:	e59c2000 	ldr	r2, [ip]
    9274:	e59f3024 	ldr	r3, [pc, #36]	; 92a0 <lcdPixelsDraw+0xa8>
    9278:	e3c22080 	bic	r2, r2, #128	; 0x80
    927c:	e58c2000 	str	r2, [ip]
    9280:	e5933000 	ldr	r3, [r3]
    9284:	e12fff33 	blx	r3
    9288:	e8bd8070 	pop	{r4, r5, r6, pc}
    928c:	e59f3008 	ldr	r3, [pc, #8]	; 929c <lcdPixelsDraw+0xa4>
    9290:	e593c000 	ldr	ip, [r3]
    9294:	eafffff2 	b	9264 <lcdPixelsDraw+0x6c>
    9298:	0000adb4 			; <UNDEFINED> instruction: 0x0000adb4
    929c:	0000adac 	andeq	sl, r0, ip, lsr #27
    92a0:	0000bb48 	andeq	fp, r0, r8, asr #22

000092a4 <lcdDrawChar>:
    92a4:	e92d4ff0 	push	{r4, r5, r6, r7, r8, r9, sl, fp, lr}
    92a8:	e2422020 	sub	r2, r2, #32
    92ac:	e352005e 	cmp	r2, #94	; 0x5e
    92b0:	d1a02282 	lslle	r2, r2, #5
    92b4:	e24dd00c 	sub	sp, sp, #12
    92b8:	d2822004 	addle	r2, r2, #4
    92bc:	e1a09000 	mov	r9, r0
    92c0:	e59f3184 	ldr	r3, [pc, #388]	; 944c <lcdDrawChar+0x1a8>
    92c4:	c59f0184 	ldrgt	r0, [pc, #388]	; 9450 <lcdDrawChar+0x1ac>
    92c8:	d58d2004 	strle	r2, [sp, #4]
    92cc:	e59f2180 	ldr	r2, [pc, #384]	; 9454 <lcdDrawChar+0x1b0>
    92d0:	e1a0a001 	mov	sl, r1
    92d4:	c58d0004 	strgt	r0, [sp, #4]
    92d8:	e5d31002 	ldrb	r1, [r3, #2]
    92dc:	e5d20002 	ldrb	r0, [r2, #2]
    92e0:	e5d24000 	ldrb	r4, [r2]
    92e4:	e5d36000 	ldrb	r6, [r3]
    92e8:	e5d37001 	ldrb	r7, [r3, #1]
    92ec:	e59f3164 	ldr	r3, [pc, #356]	; 9458 <lcdDrawChar+0x1b4>
    92f0:	e5d25001 	ldrb	r5, [r2, #1]
    92f4:	e1a0c1a0 	lsr	ip, r0, #3
    92f8:	e1a021a1 	lsr	r2, r1, #3
    92fc:	e1a00280 	lsl	r0, r0, #5
    9300:	e1a01281 	lsl	r1, r1, #5
    9304:	e5933000 	ldr	r3, [r3]
    9308:	e1a040a4 	lsr	r4, r4, #1
    930c:	e1a060a6 	lsr	r6, r6, #1
    9310:	e08c4184 	add	r4, ip, r4, lsl #3
    9314:	e08050a5 	add	r5, r0, r5, lsr #1
    9318:	e0826186 	add	r6, r2, r6, lsl #3
    931c:	e08170a7 	add	r7, r1, r7, lsr #1
    9320:	e12fff33 	blx	r3
    9324:	e289100f 	add	r1, r9, #15
    9328:	e28a300f 	add	r3, sl, #15
    932c:	e1a01801 	lsl	r1, r1, #16
    9330:	e1a03803 	lsl	r3, r3, #16
    9334:	e1a01821 	lsr	r1, r1, #16
    9338:	e1a03823 	lsr	r3, r3, #16
    933c:	e1a00009 	mov	r0, r9
    9340:	e1a0200a 	mov	r2, sl
    9344:	ebffff90 	bl	918c <lcdSetWindow>
    9348:	e59f810c 	ldr	r8, [pc, #268]	; 945c <lcdDrawChar+0x1b8>
    934c:	e20440ff 	and	r4, r4, #255	; 0xff
    9350:	e20550ff 	and	r5, r5, #255	; 0xff
    9354:	e20660ff 	and	r6, r6, #255	; 0xff
    9358:	e20770ff 	and	r7, r7, #255	; 0xff
    935c:	e3a0b000 	mov	fp, #0
    9360:	e3a00020 	mov	r0, #32
    9364:	e1a01009 	mov	r1, r9
    9368:	e588b000 	str	fp, [r8]
    936c:	ebfffe33 	bl	8c40 <lcdRegWrite>
    9370:	e3a00021 	mov	r0, #33	; 0x21
    9374:	e1a0100a 	mov	r1, sl
    9378:	ebfffe30 	bl	8c40 <lcdRegWrite>
    937c:	e5982000 	ldr	r2, [r8]
    9380:	e3520001 	cmp	r2, #1
    9384:	0afffff5 	beq	9360 <lcdDrawChar+0xbc>
    9388:	ebffff4c 	bl	90c0 <lcdOpenGRAM>
    938c:	e59f10cc 	ldr	r1, [pc, #204]	; 9460 <lcdDrawChar+0x1bc>
    9390:	e59f20cc 	ldr	r2, [pc, #204]	; 9464 <lcdDrawChar+0x1c0>
    9394:	e59f30cc 	ldr	r3, [pc, #204]	; 9468 <lcdDrawChar+0x1c4>
    9398:	e59d0004 	ldr	r0, [sp, #4]
    939c:	e5911000 	ldr	r1, [r1]
    93a0:	e5922000 	ldr	r2, [r2]
    93a4:	e0838000 	add	r8, r3, r0
    93a8:	e3a0e000 	mov	lr, #0
    93ac:	e7d8c00e 	ldrb	ip, [r8, lr]
    93b0:	e3a03007 	mov	r3, #7
    93b4:	e1a0035c 	asr	r0, ip, r3
    93b8:	e3100001 	tst	r0, #1
    93bc:	1a000018 	bne	9424 <lcdDrawChar+0x180>
    93c0:	e5824000 	str	r4, [r2]
    93c4:	e5920000 	ldr	r0, [r2]
    93c8:	e5825000 	str	r5, [r2]
    93cc:	e5920000 	ldr	r0, [r2]
    93d0:	e5910000 	ldr	r0, [r1]
    93d4:	e3100801 	tst	r0, #65536	; 0x10000
    93d8:	0afffffc 	beq	93d0 <lcdDrawChar+0x12c>
    93dc:	e2533001 	subs	r3, r3, #1
    93e0:	2afffff3 	bcs	93b4 <lcdDrawChar+0x110>
    93e4:	e28ee001 	add	lr, lr, #1
    93e8:	e35e0020 	cmp	lr, #32
    93ec:	1affffee 	bne	93ac <lcdDrawChar+0x108>
    93f0:	e5913000 	ldr	r3, [r1]
    93f4:	e3130801 	tst	r3, #65536	; 0x10000
    93f8:	0afffffc 	beq	93f0 <lcdDrawChar+0x14c>
    93fc:	e5913000 	ldr	r3, [r1]
    9400:	e59f4064 	ldr	r4, [pc, #100]	; 946c <lcdDrawChar+0x1c8>
    9404:	e3c33080 	bic	r3, r3, #128	; 0x80
    9408:	e5813000 	str	r3, [r1]
    940c:	e5943000 	ldr	r3, [r4]
    9410:	e12fff33 	blx	r3
    9414:	e5943000 	ldr	r3, [r4]
    9418:	e12fff33 	blx	r3
    941c:	e28dd00c 	add	sp, sp, #12
    9420:	e8bd8ff0 	pop	{r4, r5, r6, r7, r8, r9, sl, fp, pc}
    9424:	e5826000 	str	r6, [r2]
    9428:	e5920000 	ldr	r0, [r2]
    942c:	e5827000 	str	r7, [r2]
    9430:	e5920000 	ldr	r0, [r2]
    9434:	e5910000 	ldr	r0, [r1]
    9438:	e3100801 	tst	r0, #65536	; 0x10000
    943c:	0afffffc 	beq	9434 <lcdDrawChar+0x190>
    9440:	e2533001 	subs	r3, r3, #1
    9444:	2affffda 	bcs	93b4 <lcdDrawChar+0x110>
    9448:	eaffffe5 	b	93e4 <lcdDrawChar+0x140>
    944c:	0000ada8 	andeq	sl, r0, r8, lsr #27
    9450:	000004a4 	andeq	r0, r0, r4, lsr #9
    9454:	0000b9d0 	ldrdeq	fp, [r0], -r0
    9458:	0000bb40 	andeq	fp, r0, r0, asr #22
    945c:	0000bb44 	andeq	fp, r0, r4, asr #22
    9460:	0000adac 	andeq	sl, r0, ip, lsr #27
    9464:	0000adb4 			; <UNDEFINED> instruction: 0x0000adb4
    9468:	0000adbc 			; <UNDEFINED> instruction: 0x0000adbc
    946c:	0000bb48 	andeq	fp, r0, r8, asr #22

00009470 <lcdPrint>:
    9470:	e92d41f0 	push	{r4, r5, r6, r7, r8, lr}
    9474:	e1a05002 	mov	r5, r2
    9478:	e1a07000 	mov	r7, r0
    947c:	e1a06001 	mov	r6, r1
    9480:	e3a00003 	mov	r0, #3
    9484:	e59f1074 	ldr	r1, [pc, #116]	; 9500 <lcdPrint+0x90>
    9488:	ebfffdec 	bl	8c40 <lcdRegWrite>
    948c:	e5d52000 	ldrb	r2, [r5]
    9490:	e3520000 	cmp	r2, #0
    9494:	08bd81f0 	popeq	{r4, r5, r6, r7, r8, pc}
    9498:	e3560e13 	cmp	r6, #304	; 0x130
    949c:	c8bd81f0 	popgt	{r4, r5, r6, r7, r8, pc}
    94a0:	e2668e13 	rsb	r8, r6, #304	; 0x130
    94a4:	e1a07807 	lsl	r7, r7, #16
    94a8:	e1a08228 	lsr	r8, r8, #4
    94ac:	e1a06806 	lsl	r6, r6, #16
    94b0:	e1a07827 	lsr	r7, r7, #16
    94b4:	e2888002 	add	r8, r8, #2
    94b8:	e1a06826 	lsr	r6, r6, #16
    94bc:	e3a04001 	mov	r4, #1
    94c0:	e3a01000 	mov	r1, #0
    94c4:	ea000003 	b	94d8 <lcdPrint+0x68>
    94c8:	e1530008 	cmp	r3, r8
    94cc:	e1a01004 	mov	r1, r4
    94d0:	08bd81f0 	popeq	{r4, r5, r6, r7, r8, pc}
    94d4:	e1a04003 	mov	r4, r3
    94d8:	e0861201 	add	r1, r6, r1, lsl #4
    94dc:	e1a01801 	lsl	r1, r1, #16
    94e0:	e1a01821 	lsr	r1, r1, #16
    94e4:	e1a00007 	mov	r0, r7
    94e8:	ebffff6d 	bl	92a4 <lcdDrawChar>
    94ec:	e5f52001 	ldrb	r2, [r5, #1]!
    94f0:	e2843001 	add	r3, r4, #1
    94f4:	e3520000 	cmp	r2, #0
    94f8:	1afffff2 	bne	94c8 <lcdPrint+0x58>
    94fc:	e8bd81f0 	pop	{r4, r5, r6, r7, r8, pc}
    9500:	0000d038 	andeq	sp, r0, r8, lsr r0

00009504 <lcdFillWindow>:
    9504:	e92d4ff0 	push	{r4, r5, r6, r7, r8, r9, sl, fp, lr}
    9508:	e59fc0a0 	ldr	ip, [pc, #160]	; 95b0 <lcdFillWindow+0xac>
    950c:	e24dd00c 	sub	sp, sp, #12
    9510:	e1a05002 	mov	r5, r2
    9514:	e5dd2038 	ldrb	r2, [sp, #56]	; 0x38
    9518:	e1a04000 	mov	r4, r0
    951c:	e1a07001 	mov	r7, r1
    9520:	e1a08003 	mov	r8, r3
    9524:	e59c3000 	ldr	r3, [ip]
    9528:	e58d2004 	str	r2, [sp, #4]
    952c:	e5ddb030 	ldrb	fp, [sp, #48]	; 0x30
    9530:	e5dd9034 	ldrb	r9, [sp, #52]	; 0x34
    9534:	e12fff33 	blx	r3
    9538:	e1a00004 	mov	r0, r4
    953c:	e1a01007 	mov	r1, r7
    9540:	e1a02005 	mov	r2, r5
    9544:	e1a03008 	mov	r3, r8
    9548:	ebffff0f 	bl	918c <lcdSetWindow>
    954c:	e59fa060 	ldr	sl, [pc, #96]	; 95b4 <lcdFillWindow+0xb0>
    9550:	e3a06000 	mov	r6, #0
    9554:	e3a00020 	mov	r0, #32
    9558:	e1a01004 	mov	r1, r4
    955c:	e58a6000 	str	r6, [sl]
    9560:	ebfffdb6 	bl	8c40 <lcdRegWrite>
    9564:	e3a00021 	mov	r0, #33	; 0x21
    9568:	e1a01005 	mov	r1, r5
    956c:	ebfffdb3 	bl	8c40 <lcdRegWrite>
    9570:	e59a2000 	ldr	r2, [sl]
    9574:	e3520001 	cmp	r2, #1
    9578:	0afffff5 	beq	9554 <lcdFillWindow+0x50>
    957c:	e0655008 	rsb	r5, r5, r8
    9580:	e2850001 	add	r0, r5, #1
    9584:	e0644007 	rsb	r4, r4, r7
    9588:	e59d3004 	ldr	r3, [sp, #4]
    958c:	e0200094 	mla	r0, r4, r0, r0
    9590:	e1a0100b 	mov	r1, fp
    9594:	e1a02009 	mov	r2, r9
    9598:	ebffff16 	bl	91f8 <lcdPixelsDraw>
    959c:	e59f3014 	ldr	r3, [pc, #20]	; 95b8 <lcdFillWindow+0xb4>
    95a0:	e5933000 	ldr	r3, [r3]
    95a4:	e12fff33 	blx	r3
    95a8:	e28dd00c 	add	sp, sp, #12
    95ac:	e8bd8ff0 	pop	{r4, r5, r6, r7, r8, r9, sl, fp, pc}
    95b0:	0000bb40 	andeq	fp, r0, r0, asr #22
    95b4:	0000bb44 	andeq	fp, r0, r4, asr #22
    95b8:	0000bb48 	andeq	fp, r0, r8, asr #22

000095bc <objectDraw>:
    95bc:	e92d41f0 	push	{r4, r5, r6, r7, r8, lr}
    95c0:	e1a07000 	mov	r7, r0
    95c4:	e1d730b4 	ldrh	r3, [r7, #4]
    95c8:	e1d000b6 	ldrh	r0, [r0, #6]
    95cc:	e1a05001 	mov	r5, r1
    95d0:	e2433001 	sub	r3, r3, #1
    95d4:	e2401001 	sub	r1, r0, #1
    95d8:	e0823003 	add	r3, r2, r3
    95dc:	e0851001 	add	r1, r5, r1
    95e0:	e1a01801 	lsl	r1, r1, #16
    95e4:	e1a03803 	lsl	r3, r3, #16
    95e8:	e1a01821 	lsr	r1, r1, #16
    95ec:	e1a03823 	lsr	r3, r3, #16
    95f0:	e1a00005 	mov	r0, r5
    95f4:	e1a06002 	mov	r6, r2
    95f8:	ebfffee3 	bl	918c <lcdSetWindow>
    95fc:	e59f4050 	ldr	r4, [pc, #80]	; 9654 <objectDraw+0x98>
    9600:	e3a08000 	mov	r8, #0
    9604:	e3a00020 	mov	r0, #32
    9608:	e1a01005 	mov	r1, r5
    960c:	e5848000 	str	r8, [r4]
    9610:	ebfffd8a 	bl	8c40 <lcdRegWrite>
    9614:	e3a00021 	mov	r0, #33	; 0x21
    9618:	e1a01006 	mov	r1, r6
    961c:	ebfffd87 	bl	8c40 <lcdRegWrite>
    9620:	e5943000 	ldr	r3, [r4]
    9624:	e3530001 	cmp	r3, #1
    9628:	0afffff5 	beq	9604 <objectDraw+0x48>
    962c:	e1d730b4 	ldrh	r3, [r7, #4]
    9630:	e1d700b6 	ldrh	r0, [r7, #6]
    9634:	e5d71008 	ldrb	r1, [r7, #8]
    9638:	e0000093 	mul	r0, r3, r0
    963c:	e5d72009 	ldrb	r2, [r7, #9]
    9640:	e5d7300a 	ldrb	r3, [r7, #10]
    9644:	ebfffeeb 	bl	91f8 <lcdPixelsDraw>
    9648:	e1c750b0 	strh	r5, [r7]
    964c:	e1c760b2 	strh	r6, [r7, #2]
    9650:	e8bd81f0 	pop	{r4, r5, r6, r7, r8, pc}
    9654:	0000bb44 	andeq	fp, r0, r4, asr #22

00009658 <objectMoveUp>:
    9658:	e92d41f0 	push	{r4, r5, r6, r7, r8, lr}
    965c:	e1a05000 	mov	r5, r0
    9660:	e1d520b2 	ldrh	r2, [r5, #2]
    9664:	e1d000b0 	ldrh	r0, [r0]
    9668:	e1d530b4 	ldrh	r3, [r5, #4]
    966c:	e2400001 	sub	r0, r0, #1
    9670:	e0823003 	add	r3, r2, r3
    9674:	e1a00800 	lsl	r0, r0, #16
    9678:	e2433001 	sub	r3, r3, #1
    967c:	e1a00820 	lsr	r0, r0, #16
    9680:	e1a03803 	lsl	r3, r3, #16
    9684:	e1a01000 	mov	r1, r0
    9688:	e1a03823 	lsr	r3, r3, #16
    968c:	ebfffebe 	bl	918c <lcdSetWindow>
    9690:	e1d570b0 	ldrh	r7, [r5]
    9694:	e1d580b2 	ldrh	r8, [r5, #2]
    9698:	e2477001 	sub	r7, r7, #1
    969c:	e1a07807 	lsl	r7, r7, #16
    96a0:	e59f40e4 	ldr	r4, [pc, #228]	; 978c <objectMoveUp+0x134>
    96a4:	e1a07827 	lsr	r7, r7, #16
    96a8:	e3a06000 	mov	r6, #0
    96ac:	e3a00020 	mov	r0, #32
    96b0:	e1a01007 	mov	r1, r7
    96b4:	e5846000 	str	r6, [r4]
    96b8:	ebfffd60 	bl	8c40 <lcdRegWrite>
    96bc:	e3a00021 	mov	r0, #33	; 0x21
    96c0:	e1a01008 	mov	r1, r8
    96c4:	ebfffd5d 	bl	8c40 <lcdRegWrite>
    96c8:	e5943000 	ldr	r3, [r4]
    96cc:	e3530001 	cmp	r3, #1
    96d0:	0afffff5 	beq	96ac <objectMoveUp+0x54>
    96d4:	e1d500b4 	ldrh	r0, [r5, #4]
    96d8:	e5d51008 	ldrb	r1, [r5, #8]
    96dc:	e5d52009 	ldrb	r2, [r5, #9]
    96e0:	e5d5300a 	ldrb	r3, [r5, #10]
    96e4:	ebfffec3 	bl	91f8 <lcdPixelsDraw>
    96e8:	e1d530b6 	ldrh	r3, [r5, #6]
    96ec:	e1d500b0 	ldrh	r0, [r5]
    96f0:	e1d520b2 	ldrh	r2, [r5, #2]
    96f4:	e0800003 	add	r0, r0, r3
    96f8:	e1d530b4 	ldrh	r3, [r5, #4]
    96fc:	e2400001 	sub	r0, r0, #1
    9700:	e0823003 	add	r3, r2, r3
    9704:	e1a00800 	lsl	r0, r0, #16
    9708:	e2433001 	sub	r3, r3, #1
    970c:	e1a00820 	lsr	r0, r0, #16
    9710:	e1a03803 	lsl	r3, r3, #16
    9714:	e1a03823 	lsr	r3, r3, #16
    9718:	e1a01000 	mov	r1, r0
    971c:	ebfffe9a 	bl	918c <lcdSetWindow>
    9720:	e1d570b0 	ldrh	r7, [r5]
    9724:	e1d530b6 	ldrh	r3, [r5, #6]
    9728:	e1d580b2 	ldrh	r8, [r5, #2]
    972c:	e0877003 	add	r7, r7, r3
    9730:	e2477001 	sub	r7, r7, #1
    9734:	e1a07807 	lsl	r7, r7, #16
    9738:	e1a07827 	lsr	r7, r7, #16
    973c:	e3a06000 	mov	r6, #0
    9740:	e3a00020 	mov	r0, #32
    9744:	e1a01007 	mov	r1, r7
    9748:	e5846000 	str	r6, [r4]
    974c:	ebfffd3b 	bl	8c40 <lcdRegWrite>
    9750:	e3a00021 	mov	r0, #33	; 0x21
    9754:	e1a01008 	mov	r1, r8
    9758:	ebfffd38 	bl	8c40 <lcdRegWrite>
    975c:	e5943000 	ldr	r3, [r4]
    9760:	e3530001 	cmp	r3, #1
    9764:	0afffff5 	beq	9740 <objectMoveUp+0xe8>
    9768:	e3a03013 	mov	r3, #19
    976c:	e1d500b4 	ldrh	r0, [r5, #4]
    9770:	e3a0100d 	mov	r1, #13
    9774:	e3a02002 	mov	r2, #2
    9778:	ebfffe9e 	bl	91f8 <lcdPixelsDraw>
    977c:	e1d530b0 	ldrh	r3, [r5]
    9780:	e2433001 	sub	r3, r3, #1
    9784:	e1c530b0 	strh	r3, [r5]
    9788:	e8bd81f0 	pop	{r4, r5, r6, r7, r8, pc}
    978c:	0000bb44 	andeq	fp, r0, r4, asr #22

00009790 <objectMoveDown>:
    9790:	e1d020b2 	ldrh	r2, [r0, #2]
    9794:	e1d030b4 	ldrh	r3, [r0, #4]
    9798:	e92d41f0 	push	{r4, r5, r6, r7, r8, lr}
    979c:	e0823003 	add	r3, r2, r3
    97a0:	e1a05000 	mov	r5, r0
    97a4:	e2433001 	sub	r3, r3, #1
    97a8:	e1d000b0 	ldrh	r0, [r0]
    97ac:	e1a03803 	lsl	r3, r3, #16
    97b0:	e1a03823 	lsr	r3, r3, #16
    97b4:	e1a01000 	mov	r1, r0
    97b8:	ebfffe73 	bl	918c <lcdSetWindow>
    97bc:	e59f40e0 	ldr	r4, [pc, #224]	; 98a4 <objectMoveDown+0x114>
    97c0:	e1d580b0 	ldrh	r8, [r5]
    97c4:	e1d570b2 	ldrh	r7, [r5, #2]
    97c8:	e3a06000 	mov	r6, #0
    97cc:	e3a00020 	mov	r0, #32
    97d0:	e1a01008 	mov	r1, r8
    97d4:	e5846000 	str	r6, [r4]
    97d8:	ebfffd18 	bl	8c40 <lcdRegWrite>
    97dc:	e3a00021 	mov	r0, #33	; 0x21
    97e0:	e1a01007 	mov	r1, r7
    97e4:	ebfffd15 	bl	8c40 <lcdRegWrite>
    97e8:	e5943000 	ldr	r3, [r4]
    97ec:	e3530001 	cmp	r3, #1
    97f0:	0afffff5 	beq	97cc <objectMoveDown+0x3c>
    97f4:	e1d500b4 	ldrh	r0, [r5, #4]
    97f8:	e3a0100d 	mov	r1, #13
    97fc:	e3a02002 	mov	r2, #2
    9800:	e3a03013 	mov	r3, #19
    9804:	ebfffe7b 	bl	91f8 <lcdPixelsDraw>
    9808:	e1d510b0 	ldrh	r1, [r5]
    980c:	e1d500b6 	ldrh	r0, [r5, #6]
    9810:	e1d520b2 	ldrh	r2, [r5, #2]
    9814:	e1d530b4 	ldrh	r3, [r5, #4]
    9818:	e0800001 	add	r0, r0, r1
    981c:	e0823003 	add	r3, r2, r3
    9820:	e1a00800 	lsl	r0, r0, #16
    9824:	e2433001 	sub	r3, r3, #1
    9828:	e1a00820 	lsr	r0, r0, #16
    982c:	e1a03803 	lsl	r3, r3, #16
    9830:	e1a03823 	lsr	r3, r3, #16
    9834:	e1a01000 	mov	r1, r0
    9838:	ebfffe53 	bl	918c <lcdSetWindow>
    983c:	e1d570b6 	ldrh	r7, [r5, #6]
    9840:	e1d530b0 	ldrh	r3, [r5]
    9844:	e1d580b2 	ldrh	r8, [r5, #2]
    9848:	e0877003 	add	r7, r7, r3
    984c:	e1a07807 	lsl	r7, r7, #16
    9850:	e1a07827 	lsr	r7, r7, #16
    9854:	e3a06000 	mov	r6, #0
    9858:	e3a00020 	mov	r0, #32
    985c:	e1a01007 	mov	r1, r7
    9860:	e5846000 	str	r6, [r4]
    9864:	ebfffcf5 	bl	8c40 <lcdRegWrite>
    9868:	e3a00021 	mov	r0, #33	; 0x21
    986c:	e1a01008 	mov	r1, r8
    9870:	ebfffcf2 	bl	8c40 <lcdRegWrite>
    9874:	e5943000 	ldr	r3, [r4]
    9878:	e3530001 	cmp	r3, #1
    987c:	0afffff5 	beq	9858 <objectMoveDown+0xc8>
    9880:	e5d5300a 	ldrb	r3, [r5, #10]
    9884:	e1d500b4 	ldrh	r0, [r5, #4]
    9888:	e5d51008 	ldrb	r1, [r5, #8]
    988c:	e5d52009 	ldrb	r2, [r5, #9]
    9890:	ebfffe58 	bl	91f8 <lcdPixelsDraw>
    9894:	e1d530b0 	ldrh	r3, [r5]
    9898:	e2833001 	add	r3, r3, #1
    989c:	e1c530b0 	strh	r3, [r5]
    98a0:	e8bd81f0 	pop	{r4, r5, r6, r7, r8, pc}
    98a4:	0000bb44 	andeq	fp, r0, r4, asr #22

000098a8 <objectMoveRight>:
    98a8:	e92d41f0 	push	{r4, r5, r6, r7, r8, lr}
    98ac:	e1a05000 	mov	r5, r0
    98b0:	e1d510b6 	ldrh	r1, [r5, #6]
    98b4:	e1d000b0 	ldrh	r0, [r0]
    98b8:	e1d520b2 	ldrh	r2, [r5, #2]
    98bc:	e0801001 	add	r1, r0, r1
    98c0:	e2411001 	sub	r1, r1, #1
    98c4:	e1a01801 	lsl	r1, r1, #16
    98c8:	e1a01821 	lsr	r1, r1, #16
    98cc:	e1a03002 	mov	r3, r2
    98d0:	ebfffe2d 	bl	918c <lcdSetWindow>
    98d4:	e59f40e0 	ldr	r4, [pc, #224]	; 99bc <objectMoveRight+0x114>
    98d8:	e1d580b0 	ldrh	r8, [r5]
    98dc:	e1d570b2 	ldrh	r7, [r5, #2]
    98e0:	e3a06000 	mov	r6, #0
    98e4:	e3a00020 	mov	r0, #32
    98e8:	e1a01008 	mov	r1, r8
    98ec:	e5846000 	str	r6, [r4]
    98f0:	ebfffcd2 	bl	8c40 <lcdRegWrite>
    98f4:	e3a00021 	mov	r0, #33	; 0x21
    98f8:	e1a01007 	mov	r1, r7
    98fc:	ebfffccf 	bl	8c40 <lcdRegWrite>
    9900:	e5943000 	ldr	r3, [r4]
    9904:	e3530001 	cmp	r3, #1
    9908:	0afffff5 	beq	98e4 <objectMoveRight+0x3c>
    990c:	e1d500b6 	ldrh	r0, [r5, #6]
    9910:	e3a0100d 	mov	r1, #13
    9914:	e3a02002 	mov	r2, #2
    9918:	e3a03013 	mov	r3, #19
    991c:	ebfffe35 	bl	91f8 <lcdPixelsDraw>
    9920:	e1d530b2 	ldrh	r3, [r5, #2]
    9924:	e1d520b4 	ldrh	r2, [r5, #4]
    9928:	e1d500b0 	ldrh	r0, [r5]
    992c:	e1d510b6 	ldrh	r1, [r5, #6]
    9930:	e0822003 	add	r2, r2, r3
    9934:	e0801001 	add	r1, r0, r1
    9938:	e1a02802 	lsl	r2, r2, #16
    993c:	e2411001 	sub	r1, r1, #1
    9940:	e1a02822 	lsr	r2, r2, #16
    9944:	e1a01801 	lsl	r1, r1, #16
    9948:	e1a03002 	mov	r3, r2
    994c:	e1a01821 	lsr	r1, r1, #16
    9950:	ebfffe0d 	bl	918c <lcdSetWindow>
    9954:	e1d570b4 	ldrh	r7, [r5, #4]
    9958:	e1d530b2 	ldrh	r3, [r5, #2]
    995c:	e1d580b0 	ldrh	r8, [r5]
    9960:	e0877003 	add	r7, r7, r3
    9964:	e1a07807 	lsl	r7, r7, #16
    9968:	e1a07827 	lsr	r7, r7, #16
    996c:	e3a06000 	mov	r6, #0
    9970:	e3a00020 	mov	r0, #32
    9974:	e1a01008 	mov	r1, r8
    9978:	e5846000 	str	r6, [r4]
    997c:	ebfffcaf 	bl	8c40 <lcdRegWrite>
    9980:	e3a00021 	mov	r0, #33	; 0x21
    9984:	e1a01007 	mov	r1, r7
    9988:	ebfffcac 	bl	8c40 <lcdRegWrite>
    998c:	e5943000 	ldr	r3, [r4]
    9990:	e3530001 	cmp	r3, #1
    9994:	0afffff5 	beq	9970 <objectMoveRight+0xc8>
    9998:	e5d5300a 	ldrb	r3, [r5, #10]
    999c:	e1d500b6 	ldrh	r0, [r5, #6]
    99a0:	e5d51008 	ldrb	r1, [r5, #8]
    99a4:	e5d52009 	ldrb	r2, [r5, #9]
    99a8:	ebfffe12 	bl	91f8 <lcdPixelsDraw>
    99ac:	e1d530b2 	ldrh	r3, [r5, #2]
    99b0:	e2833001 	add	r3, r3, #1
    99b4:	e1c530b2 	strh	r3, [r5, #2]
    99b8:	e8bd81f0 	pop	{r4, r5, r6, r7, r8, pc}
    99bc:	0000bb44 	andeq	fp, r0, r4, asr #22

000099c0 <objectMoveLeft>:
    99c0:	e92d41f0 	push	{r4, r5, r6, r7, r8, lr}
    99c4:	e1d030b4 	ldrh	r3, [r0, #4]
    99c8:	e1a05000 	mov	r5, r0
    99cc:	e1d020b2 	ldrh	r2, [r0, #2]
    99d0:	e1d510b6 	ldrh	r1, [r5, #6]
    99d4:	e1d000b0 	ldrh	r0, [r0]
    99d8:	e0822003 	add	r2, r2, r3
    99dc:	e0801001 	add	r1, r0, r1
    99e0:	e2422001 	sub	r2, r2, #1
    99e4:	e1a02802 	lsl	r2, r2, #16
    99e8:	e2411001 	sub	r1, r1, #1
    99ec:	e1a02822 	lsr	r2, r2, #16
    99f0:	e1a01801 	lsl	r1, r1, #16
    99f4:	e1a03002 	mov	r3, r2
    99f8:	e1a01821 	lsr	r1, r1, #16
    99fc:	ebfffde2 	bl	918c <lcdSetWindow>
    9a00:	e1d570b2 	ldrh	r7, [r5, #2]
    9a04:	e1d530b4 	ldrh	r3, [r5, #4]
    9a08:	e1d580b0 	ldrh	r8, [r5]
    9a0c:	e0877003 	add	r7, r7, r3
    9a10:	e2477001 	sub	r7, r7, #1
    9a14:	e1a07807 	lsl	r7, r7, #16
    9a18:	e59f40d4 	ldr	r4, [pc, #212]	; 9af4 <objectMoveLeft+0x134>
    9a1c:	e1a07827 	lsr	r7, r7, #16
    9a20:	e3a06000 	mov	r6, #0
    9a24:	e3a00020 	mov	r0, #32
    9a28:	e1a01008 	mov	r1, r8
    9a2c:	e5846000 	str	r6, [r4]
    9a30:	ebfffc82 	bl	8c40 <lcdRegWrite>
    9a34:	e3a00021 	mov	r0, #33	; 0x21
    9a38:	e1a01007 	mov	r1, r7
    9a3c:	ebfffc7f 	bl	8c40 <lcdRegWrite>
    9a40:	e5943000 	ldr	r3, [r4]
    9a44:	e3530001 	cmp	r3, #1
    9a48:	0afffff5 	beq	9a24 <objectMoveLeft+0x64>
    9a4c:	e1d500b6 	ldrh	r0, [r5, #6]
    9a50:	e3a0100d 	mov	r1, #13
    9a54:	e3a02002 	mov	r2, #2
    9a58:	e3a03013 	mov	r3, #19
    9a5c:	ebfffde5 	bl	91f8 <lcdPixelsDraw>
    9a60:	e1d520b2 	ldrh	r2, [r5, #2]
    9a64:	e1d500b0 	ldrh	r0, [r5]
    9a68:	e1d510b6 	ldrh	r1, [r5, #6]
    9a6c:	e2422001 	sub	r2, r2, #1
    9a70:	e0801001 	add	r1, r0, r1
    9a74:	e1a02802 	lsl	r2, r2, #16
    9a78:	e2411001 	sub	r1, r1, #1
    9a7c:	e1a02822 	lsr	r2, r2, #16
    9a80:	e1a01801 	lsl	r1, r1, #16
    9a84:	e1a03002 	mov	r3, r2
    9a88:	e1a01821 	lsr	r1, r1, #16
    9a8c:	ebfffdbe 	bl	918c <lcdSetWindow>
    9a90:	e1d570b2 	ldrh	r7, [r5, #2]
    9a94:	e1d580b0 	ldrh	r8, [r5]
    9a98:	e2477001 	sub	r7, r7, #1
    9a9c:	e1a07807 	lsl	r7, r7, #16
    9aa0:	e1a07827 	lsr	r7, r7, #16
    9aa4:	e3a06000 	mov	r6, #0
    9aa8:	e3a00020 	mov	r0, #32
    9aac:	e1a01008 	mov	r1, r8
    9ab0:	e5846000 	str	r6, [r4]
    9ab4:	ebfffc61 	bl	8c40 <lcdRegWrite>
    9ab8:	e3a00021 	mov	r0, #33	; 0x21
    9abc:	e1a01007 	mov	r1, r7
    9ac0:	ebfffc5e 	bl	8c40 <lcdRegWrite>
    9ac4:	e5943000 	ldr	r3, [r4]
    9ac8:	e3530001 	cmp	r3, #1
    9acc:	0afffff5 	beq	9aa8 <objectMoveLeft+0xe8>
    9ad0:	e5d5300a 	ldrb	r3, [r5, #10]
    9ad4:	e1d500b6 	ldrh	r0, [r5, #6]
    9ad8:	e5d51008 	ldrb	r1, [r5, #8]
    9adc:	e5d52009 	ldrb	r2, [r5, #9]
    9ae0:	ebfffdc4 	bl	91f8 <lcdPixelsDraw>
    9ae4:	e1d530b2 	ldrh	r3, [r5, #2]
    9ae8:	e2433001 	sub	r3, r3, #1
    9aec:	e1c530b2 	strh	r3, [r5, #2]
    9af0:	e8bd81f0 	pop	{r4, r5, r6, r7, r8, pc}
    9af4:	0000bb44 	andeq	fp, r0, r4, asr #22

00009af8 <detectCollision>:
    9af8:	e1d1c0b6 	ldrh	ip, [r1, #6]
    9afc:	e1d020b6 	ldrh	r2, [r0, #6]
    9b00:	e92d0030 	push	{r4, r5}
    9b04:	e1d150b0 	ldrh	r5, [r1]
    9b08:	e1d040b0 	ldrh	r4, [r0]
    9b0c:	e062300c 	rsb	r3, r2, ip
    9b10:	e0644005 	rsb	r4, r4, r5
    9b14:	e0833fa3 	add	r3, r3, r3, lsr #31
    9b18:	e08430c3 	add	r3, r4, r3, asr #1
    9b1c:	e1a03803 	lsl	r3, r3, #16
    9b20:	e1a03823 	lsr	r3, r3, #16
    9b24:	e1b04803 	lsls	r4, r3, #16
    9b28:	42633000 	rsbmi	r3, r3, #0
    9b2c:	e08c2002 	add	r2, ip, r2
    9b30:	41a04803 	lslmi	r4, r3, #16
    9b34:	e1a020c2 	asr	r2, r2, #1
    9b38:	e1520844 	cmp	r2, r4, asr #16
    9b3c:	da000013 	ble	9b90 <detectCollision+0x98>
    9b40:	e1d020b4 	ldrh	r2, [r0, #4]
    9b44:	e1d1c0b4 	ldrh	ip, [r1, #4]
    9b48:	e1d140b2 	ldrh	r4, [r1, #2]
    9b4c:	e1d030b2 	ldrh	r3, [r0, #2]
    9b50:	e062100c 	rsb	r1, r2, ip
    9b54:	e0811fa1 	add	r1, r1, r1, lsr #31
    9b58:	e0633004 	rsb	r3, r3, r4
    9b5c:	e08330c1 	add	r3, r3, r1, asr #1
    9b60:	e1a03803 	lsl	r3, r3, #16
    9b64:	e1a03823 	lsr	r3, r3, #16
    9b68:	e1b01803 	lsls	r1, r3, #16
    9b6c:	42633000 	rsbmi	r3, r3, #0
    9b70:	e08c2002 	add	r2, ip, r2
    9b74:	41a01803 	lslmi	r1, r3, #16
    9b78:	e1a020c2 	asr	r2, r2, #1
    9b7c:	e1520841 	cmp	r2, r1, asr #16
    9b80:	d3a00000 	movle	r0, #0
    9b84:	c3a00001 	movgt	r0, #1
    9b88:	e8bd0030 	pop	{r4, r5}
    9b8c:	e12fff1e 	bx	lr
    9b90:	e3a00000 	mov	r0, #0
    9b94:	eafffffb 	b	9b88 <detectCollision+0x90>

00009b98 <spiInit>:
    9b98:	e92d4070 	push	{r4, r5, r6, lr}
    9b9c:	e1a05000 	mov	r5, r0
    9ba0:	e1a04001 	mov	r4, r1
    9ba4:	e3a00008 	mov	r0, #8
    9ba8:	e3a01004 	mov	r1, #4
    9bac:	e1a06002 	mov	r6, r2
    9bb0:	ebfff992 	bl	8200 <setGpioFunct>
    9bb4:	e3a00009 	mov	r0, #9
    9bb8:	e3a01004 	mov	r1, #4
    9bbc:	ebfff98f 	bl	8200 <setGpioFunct>
    9bc0:	e3a0000a 	mov	r0, #10
    9bc4:	e3a01004 	mov	r1, #4
    9bc8:	ebfff98c 	bl	8200 <setGpioFunct>
    9bcc:	e3a01004 	mov	r1, #4
    9bd0:	e3a0000b 	mov	r0, #11
    9bd4:	ebfff989 	bl	8200 <setGpioFunct>
    9bd8:	e59fc024 	ldr	ip, [pc, #36]	; 9c04 <spiInit+0x6c>
    9bdc:	e1a05185 	lsl	r5, r5, #3
    9be0:	e59c3000 	ldr	r3, [ip]
    9be4:	e59c2004 	ldr	r2, [ip, #4]
    9be8:	e5931000 	ldr	r1, [r3]
    9bec:	e1854104 	orr	r4, r5, r4, lsl #2
    9bf0:	e3811030 	orr	r1, r1, #48	; 0x30
    9bf4:	e5831000 	str	r1, [r3]
    9bf8:	e5834000 	str	r4, [r3]
    9bfc:	e5826000 	str	r6, [r2]
    9c00:	e8bd8070 	pop	{r4, r5, r6, pc}
    9c04:	0000adac 	andeq	sl, r0, ip, lsr #27

00009c08 <timerInit>:
    9c08:	e92d4008 	push	{r3, lr}
    9c0c:	e59f301c 	ldr	r3, [pc, #28]	; 9c30 <timerInit+0x28>
    9c10:	e3a02002 	mov	r2, #2
    9c14:	e5933000 	ldr	r3, [r3]
    9c18:	e5832000 	str	r2, [r3]
    9c1c:	ebfff936 	bl	80fc <irqEnable>
    9c20:	e59f300c 	ldr	r3, [pc, #12]	; 9c34 <timerInit+0x2c>
    9c24:	e3a02000 	mov	r2, #0
    9c28:	e5832000 	str	r2, [r3]
    9c2c:	e8bd8008 	pop	{r3, pc}
    9c30:	0000ad7c 	andeq	sl, r0, ip, ror sp
    9c34:	0000b9d4 	ldrdeq	fp, [r0], -r4

00009c38 <timerSetMatch>:
    9c38:	e59f3020 	ldr	r3, [pc, #32]	; 9c60 <timerSetMatch+0x28>
    9c3c:	e59fc020 	ldr	ip, [pc, #32]	; 9c64 <timerSetMatch+0x2c>
    9c40:	e5933000 	ldr	r3, [r3]
    9c44:	e3a02002 	mov	r2, #2
    9c48:	e5931004 	ldr	r1, [r3, #4]
    9c4c:	e58c0004 	str	r0, [ip, #4]
    9c50:	e0801001 	add	r1, r0, r1
    9c54:	e5831010 	str	r1, [r3, #16]
    9c58:	e5832000 	str	r2, [r3]
    9c5c:	e12fff1e 	bx	lr
    9c60:	0000adb8 			; <UNDEFINED> instruction: 0x0000adb8
    9c64:	0000b9d4 	ldrdeq	fp, [r0], -r4

00009c68 <tIrqHandler>:
    9c68:	e92d4008 	push	{r3, lr}
    9c6c:	e59f3030 	ldr	r3, [pc, #48]	; 9ca4 <tIrqHandler+0x3c>
    9c70:	e59f2030 	ldr	r2, [pc, #48]	; 9ca8 <tIrqHandler+0x40>
    9c74:	e5933000 	ldr	r3, [r3]
    9c78:	e5921004 	ldr	r1, [r2, #4]
    9c7c:	e5930004 	ldr	r0, [r3, #4]
    9c80:	e5922000 	ldr	r2, [r2]
    9c84:	e0800001 	add	r0, r0, r1
    9c88:	e3520000 	cmp	r2, #0
    9c8c:	e3a01002 	mov	r1, #2
    9c90:	e5830010 	str	r0, [r3, #16]
    9c94:	e5831000 	str	r1, [r3]
    9c98:	08bd8008 	popeq	{r3, pc}
    9c9c:	e12fff32 	blx	r2
    9ca0:	e8bd8008 	pop	{r3, pc}
    9ca4:	0000adb8 			; <UNDEFINED> instruction: 0x0000adb8
    9ca8:	0000b9d4 	ldrdeq	fp, [r0], -r4

00009cac <entry>:
    9cac:	e92d4008 	push	{r3, lr}
    9cb0:	e59f305c 	ldr	r3, [pc, #92]	; 9d14 <entry+0x68>
    9cb4:	e3a02000 	mov	r2, #0
    9cb8:	e3a00020 	mov	r0, #32
    9cbc:	e5832000 	str	r2, [r3]
    9cc0:	ebfffc13 	bl	8d14 <lcdInit>
    9cc4:	e59f204c 	ldr	r2, [pc, #76]	; 9d18 <entry+0x6c>
    9cc8:	e59f104c 	ldr	r1, [pc, #76]	; 9d1c <entry+0x70>
    9ccc:	e59f304c 	ldr	r3, [pc, #76]	; 9d20 <entry+0x74>
    9cd0:	e59f004c 	ldr	r0, [pc, #76]	; 9d24 <entry+0x78>
    9cd4:	e5832000 	str	r2, [r3]
    9cd8:	e5810000 	str	r0, [r1]
    9cdc:	ebfffb1e 	bl	895c <keyboardInit>
    9ce0:	ebffffc8 	bl	9c08 <timerInit>
    9ce4:	e3a00007 	mov	r0, #7
    9ce8:	ebfffcb4 	bl	8fc0 <lcdRegRead>
    9cec:	e3800003 	orr	r0, r0, #3
    9cf0:	e1a01800 	lsl	r1, r0, #16
    9cf4:	e1a01821 	lsr	r1, r1, #16
    9cf8:	e3a00007 	mov	r0, #7
    9cfc:	ebfffbcf 	bl	8c40 <lcdRegWrite>
    9d00:	e3a0000a 	mov	r0, #10
    9d04:	e1a01000 	mov	r1, r0
    9d08:	e59f2018 	ldr	r2, [pc, #24]	; 9d28 <entry+0x7c>
    9d0c:	ebfffdd7 	bl	9470 <lcdPrint>
    9d10:	eafffffe 	b	9d10 <entry+0x64>
    9d14:	0000bae8 	andeq	fp, r0, r8, ror #21
    9d18:	0000891c 	andeq	r8, r0, ip, lsl r9
    9d1c:	0000bb40 	andeq	fp, r0, r0, asr #22
    9d20:	0000bb48 	andeq	fp, r0, r8, asr #22
    9d24:	000088dc 	ldrdeq	r8, [r0], -ip
    9d28:	0000bbf4 	strdeq	fp, [r0], -r4

00009d2c <_Z8intToStriPc>:
    9d2c:	e59f207c 	ldr	r2, [pc, #124]	; 9db0 <_Z8intToStriPc+0x84>
    9d30:	e59f307c 	ldr	r3, [pc, #124]	; 9db4 <_Z8intToStriPc+0x88>
    9d34:	e1500002 	cmp	r0, r2
    9d38:	e92d0070 	push	{r4, r5, r6}
    9d3c:	c1a00003 	movgt	r0, r3
    9d40:	e59f4070 	ldr	r4, [pc, #112]	; 9db8 <_Z8intToStriPc+0x8c>
    9d44:	e1a03000 	mov	r3, r0
    9d48:	e3a0c000 	mov	ip, #0
    9d4c:	e0c25394 	smull	r5, r2, r4, r3
    9d50:	e1a03fc3 	asr	r3, r3, #31
    9d54:	e0633142 	rsb	r3, r3, r2, asr #2
    9d58:	e3530000 	cmp	r3, #0
    9d5c:	e28cc001 	add	ip, ip, #1
    9d60:	cafffff9 	bgt	9d4c <_Z8intToStriPc+0x20>
    9d64:	e081100c 	add	r1, r1, ip
    9d68:	e59f6048 	ldr	r6, [pc, #72]	; 9db8 <_Z8intToStriPc+0x8c>
    9d6c:	e1a04001 	mov	r4, r1
    9d70:	e3a02000 	mov	r2, #0
    9d74:	e0c53096 	smull	r3, r5, r6, r0
    9d78:	e1a03fc0 	asr	r3, r0, #31
    9d7c:	e0633145 	rsb	r3, r3, r5, asr #2
    9d80:	e0835103 	add	r5, r3, r3, lsl #2
    9d84:	e2822001 	add	r2, r2, #1
    9d88:	e0400085 	sub	r0, r0, r5, lsl #1
    9d8c:	e2800030 	add	r0, r0, #48	; 0x30
    9d90:	e152000c 	cmp	r2, ip
    9d94:	e5640001 	strb	r0, [r4, #-1]!
    9d98:	e1a00003 	mov	r0, r3
    9d9c:	bafffff4 	blt	9d74 <_Z8intToStriPc+0x48>
    9da0:	e3a03000 	mov	r3, #0
    9da4:	e5c13000 	strb	r3, [r1]
    9da8:	e8bd0070 	pop	{r4, r5, r6}
    9dac:	e12fff1e 	bx	lr
    9db0:	0000270f 	andeq	r2, r0, pc, lsl #14
    9db4:	0000029a 	muleq	r0, sl, r2
    9db8:	66666667 	strbtvs	r6, [r6], -r7, ror #12

00009dbc <_ZN6pacmanC1EiiP3map>:
    9dbc:	e92d4038 	push	{r3, r4, r5, lr}
    9dc0:	e1a0c201 	lsl	ip, r1, #4
    9dc4:	e1a0e202 	lsl	lr, r2, #4
    9dc8:	e1a04000 	mov	r4, r0
    9dcc:	e28c5008 	add	r5, ip, #8
    9dd0:	e28ee008 	add	lr, lr, #8
    9dd4:	e3a0c000 	mov	ip, #0
    9dd8:	e1a00a01 	lsl	r0, r1, #20
    9ddc:	e1a01a02 	lsl	r1, r2, #20
    9de0:	e3a02056 	mov	r2, #86	; 0x56
    9de4:	e584300c 	str	r3, [r4, #12]
    9de8:	e5845004 	str	r5, [r4, #4]
    9dec:	e1a00820 	lsr	r0, r0, #16
    9df0:	e584e008 	str	lr, [r4, #8]
    9df4:	e1a01821 	lsr	r1, r1, #16
    9df8:	e584c000 	str	ip, [r4]
    9dfc:	e584c014 	str	ip, [r4, #20]
    9e00:	e5c42010 	strb	r2, [r4, #16]
    9e04:	ebfffd26 	bl	92a4 <lcdDrawChar>
    9e08:	e1a00004 	mov	r0, r4
    9e0c:	e8bd8038 	pop	{r3, r4, r5, pc}

00009e10 <_ZN5enemyC1EiiP3map>:
    9e10:	e92d4038 	push	{r3, r4, r5, lr}
    9e14:	e1a0c201 	lsl	ip, r1, #4
    9e18:	e1a0e202 	lsl	lr, r2, #4
    9e1c:	e1a04000 	mov	r4, r0
    9e20:	e28c5008 	add	r5, ip, #8
    9e24:	e28ee008 	add	lr, lr, #8
    9e28:	e3a0c000 	mov	ip, #0
    9e2c:	e1a00a01 	lsl	r0, r1, #20
    9e30:	e1a01a02 	lsl	r1, r2, #20
    9e34:	e3a0204f 	mov	r2, #79	; 0x4f
    9e38:	e584300c 	str	r3, [r4, #12]
    9e3c:	e5845004 	str	r5, [r4, #4]
    9e40:	e1a00820 	lsr	r0, r0, #16
    9e44:	e584e008 	str	lr, [r4, #8]
    9e48:	e1a01821 	lsr	r1, r1, #16
    9e4c:	e584c000 	str	ip, [r4]
    9e50:	e5c42010 	strb	r2, [r4, #16]
    9e54:	ebfffd12 	bl	92a4 <lcdDrawChar>
    9e58:	e1a00004 	mov	r0, r4
    9e5c:	e8bd8038 	pop	{r3, r4, r5, pc}

00009e60 <_ZN6player7goodDirEi>:
    9e60:	e990000c 	ldmib	r0, {r2, r3}
    9e64:	e52d4004 	push	{r4}		; (str r4, [sp, #-4]!)
    9e68:	e3520000 	cmp	r2, #0
    9e6c:	e282400f 	add	r4, r2, #15
    9e70:	e283c00f 	add	ip, r3, #15
    9e74:	b1a02004 	movlt	r2, r4
    9e78:	e3530000 	cmp	r3, #0
    9e7c:	b1a0300c 	movlt	r3, ip
    9e80:	e1a02242 	asr	r2, r2, #4
    9e84:	e1a03243 	asr	r3, r3, #4
    9e88:	e3510003 	cmp	r1, #3
    9e8c:	979ff101 	ldrls	pc, [pc, r1, lsl #2]
    9e90:	ea000005 	b	9eac <_ZN6player7goodDirEi+0x4c>
    9e94:	00009f20 	andeq	r9, r0, r0, lsr #30
    9e98:	00009f10 	andeq	r9, r0, r0, lsl pc
    9e9c:	00009ea4 	andeq	r9, r0, r4, lsr #29
    9ea0:	00009eb8 			; <UNDEFINED> instruction: 0x00009eb8
    9ea4:	e3530000 	cmp	r3, #0
    9ea8:	1a00002d 	bne	9f64 <_ZN6player7goodDirEi+0x104>
    9eac:	e3a00000 	mov	r0, #0
    9eb0:	e8bd0010 	ldmfd	sp!, {r4}
    9eb4:	e12fff1e 	bx	lr
    9eb8:	e352000e 	cmp	r2, #14
    9ebc:	0afffffa 	beq	9eac <_ZN6player7goodDirEi+0x4c>
    9ec0:	e2822001 	add	r2, r2, #1
    9ec4:	e3530000 	cmp	r3, #0
    9ec8:	e283c003 	add	ip, r3, #3
    9ecc:	e1a01fc3 	asr	r1, r3, #31
    9ed0:	a1a0c003 	movge	ip, r3
    9ed4:	e0822102 	add	r2, r2, r2, lsl #2
    9ed8:	e590000c 	ldr	r0, [r0, #12]
    9edc:	e1a01f21 	lsr	r1, r1, #30
    9ee0:	e082214c 	add	r2, r2, ip, asr #2
    9ee4:	e0833001 	add	r3, r3, r1
    9ee8:	e0802002 	add	r2, r0, r2
    9eec:	e2033003 	and	r3, r3, #3
    9ef0:	e5d22004 	ldrb	r2, [r2, #4]
    9ef4:	e0613003 	rsb	r3, r1, r3
    9ef8:	e1a03083 	lsl	r3, r3, #1
    9efc:	e3a00003 	mov	r0, #3
    9f00:	e0020310 	and	r0, r2, r0, lsl r3
    9f04:	e1b00330 	lsrs	r0, r0, r3
    9f08:	13a00001 	movne	r0, #1
    9f0c:	eaffffe7 	b	9eb0 <_ZN6player7goodDirEi+0x50>
    9f10:	e3520000 	cmp	r2, #0
    9f14:	12422001 	subne	r2, r2, #1
    9f18:	1affffe9 	bne	9ec4 <_ZN6player7goodDirEi+0x64>
    9f1c:	eaffffe2 	b	9eac <_ZN6player7goodDirEi+0x4c>
    9f20:	e3530013 	cmp	r3, #19
    9f24:	0affffe0 	beq	9eac <_ZN6player7goodDirEi+0x4c>
    9f28:	e2831001 	add	r1, r3, #1
    9f2c:	e3510000 	cmp	r1, #0
    9f30:	e590000c 	ldr	r0, [r0, #12]
    9f34:	e1a0cfc1 	asr	ip, r1, #31
    9f38:	e0822102 	add	r2, r2, r2, lsl #2
    9f3c:	a1a03001 	movge	r3, r1
    9f40:	b2833004 	addlt	r3, r3, #4
    9f44:	e1a0cf2c 	lsr	ip, ip, #30
    9f48:	e0822143 	add	r2, r2, r3, asr #2
    9f4c:	e081300c 	add	r3, r1, ip
    9f50:	e0802002 	add	r2, r0, r2
    9f54:	e2033003 	and	r3, r3, #3
    9f58:	e5d22004 	ldrb	r2, [r2, #4]
    9f5c:	e06c3003 	rsb	r3, ip, r3
    9f60:	eaffffe4 	b	9ef8 <_ZN6player7goodDirEi+0x98>
    9f64:	e2431001 	sub	r1, r3, #1
    9f68:	e3510000 	cmp	r1, #0
    9f6c:	e1a0cfc1 	asr	ip, r1, #31
    9f70:	e0822102 	add	r2, r2, r2, lsl #2
    9f74:	e590000c 	ldr	r0, [r0, #12]
    9f78:	a1a03001 	movge	r3, r1
    9f7c:	b2833002 	addlt	r3, r3, #2
    9f80:	eaffffef 	b	9f44 <_ZN6player7goodDirEi+0xe4>

00009f84 <_ZN6player4moveEi>:
    9f84:	e92d4030 	push	{r4, r5, lr}
    9f88:	e1a04000 	mov	r4, r0
    9f8c:	e24dd014 	sub	sp, sp, #20
    9f90:	e3510003 	cmp	r1, #3
    9f94:	979ff101 	ldrls	pc, [pc, r1, lsl #2]
    9f98:	ea000024 	b	a030 <_ZN6player4moveEi+0xac>
    9f9c:	0000a148 	andeq	sl, r0, r8, asr #2
    9fa0:	0000a0c0 	andeq	sl, r0, r0, asr #1
    9fa4:	0000a038 	andeq	sl, r0, r8, lsr r0
    9fa8:	00009fac 	andeq	r9, r0, ip, lsr #31
    9fac:	e3a00003 	mov	r0, #3
    9fb0:	e59f1218 	ldr	r1, [pc, #536]	; a1d0 <_ZN6player4moveEi+0x24c>
    9fb4:	ebfffb21 	bl	8c40 <lcdRegWrite>
    9fb8:	e5940004 	ldr	r0, [r4, #4]
    9fbc:	e1d430b8 	ldrh	r3, [r4, #8]
    9fc0:	e2400008 	sub	r0, r0, #8
    9fc4:	e2432008 	sub	r2, r3, #8
    9fc8:	e1a00800 	lsl	r0, r0, #16
    9fcc:	e2833007 	add	r3, r3, #7
    9fd0:	e1a00820 	lsr	r0, r0, #16
    9fd4:	e3a0e002 	mov	lr, #2
    9fd8:	e3a0c013 	mov	ip, #19
    9fdc:	e1a02802 	lsl	r2, r2, #16
    9fe0:	e1a03803 	lsl	r3, r3, #16
    9fe4:	e3a0500d 	mov	r5, #13
    9fe8:	e1a03823 	lsr	r3, r3, #16
    9fec:	e1a01000 	mov	r1, r0
    9ff0:	e1a02822 	lsr	r2, r2, #16
    9ff4:	e88d4020 	stm	sp, {r5, lr}
    9ff8:	e58dc008 	str	ip, [sp, #8]
    9ffc:	ebfffd40 	bl	9504 <lcdFillWindow>
    a000:	e9940003 	ldmib	r4, {r0, r1}
    a004:	e2400007 	sub	r0, r0, #7
    a008:	e2411008 	sub	r1, r1, #8
    a00c:	e1a00800 	lsl	r0, r0, #16
    a010:	e1a01801 	lsl	r1, r1, #16
    a014:	e1a00820 	lsr	r0, r0, #16
    a018:	e1a01821 	lsr	r1, r1, #16
    a01c:	e5d42010 	ldrb	r2, [r4, #16]
    a020:	ebfffc9f 	bl	92a4 <lcdDrawChar>
    a024:	e5943004 	ldr	r3, [r4, #4]
    a028:	e2833001 	add	r3, r3, #1
    a02c:	e5843004 	str	r3, [r4, #4]
    a030:	e28dd014 	add	sp, sp, #20
    a034:	e8bd8030 	pop	{r4, r5, pc}
    a038:	e3a00003 	mov	r0, #3
    a03c:	e59f1190 	ldr	r1, [pc, #400]	; a1d4 <_ZN6player4moveEi+0x250>
    a040:	ebfffafe 	bl	8c40 <lcdRegWrite>
    a044:	e5942008 	ldr	r2, [r4, #8]
    a048:	e1d430b4 	ldrh	r3, [r4, #4]
    a04c:	e2822007 	add	r2, r2, #7
    a050:	e2430008 	sub	r0, r3, #8
    a054:	e1a02802 	lsl	r2, r2, #16
    a058:	e2833007 	add	r3, r3, #7
    a05c:	e1a02822 	lsr	r2, r2, #16
    a060:	e3a0e002 	mov	lr, #2
    a064:	e3a0c013 	mov	ip, #19
    a068:	e1a01803 	lsl	r1, r3, #16
    a06c:	e1a00800 	lsl	r0, r0, #16
    a070:	e3a0500d 	mov	r5, #13
    a074:	e1a03002 	mov	r3, r2
    a078:	e1a00820 	lsr	r0, r0, #16
    a07c:	e1a01821 	lsr	r1, r1, #16
    a080:	e88d4020 	stm	sp, {r5, lr}
    a084:	e58dc008 	str	ip, [sp, #8]
    a088:	ebfffd1d 	bl	9504 <lcdFillWindow>
    a08c:	e9940003 	ldmib	r4, {r0, r1}
    a090:	e2400008 	sub	r0, r0, #8
    a094:	e2411009 	sub	r1, r1, #9
    a098:	e1a00800 	lsl	r0, r0, #16
    a09c:	e1a01801 	lsl	r1, r1, #16
    a0a0:	e1a00820 	lsr	r0, r0, #16
    a0a4:	e1a01821 	lsr	r1, r1, #16
    a0a8:	e5d42010 	ldrb	r2, [r4, #16]
    a0ac:	ebfffc7c 	bl	92a4 <lcdDrawChar>
    a0b0:	e5943008 	ldr	r3, [r4, #8]
    a0b4:	e2433001 	sub	r3, r3, #1
    a0b8:	e5843008 	str	r3, [r4, #8]
    a0bc:	eaffffdb 	b	a030 <_ZN6player4moveEi+0xac>
    a0c0:	e3a00003 	mov	r0, #3
    a0c4:	e59f110c 	ldr	r1, [pc, #268]	; a1d8 <_ZN6player4moveEi+0x254>
    a0c8:	ebfffadc 	bl	8c40 <lcdRegWrite>
    a0cc:	e5940004 	ldr	r0, [r4, #4]
    a0d0:	e1d430b8 	ldrh	r3, [r4, #8]
    a0d4:	e2800007 	add	r0, r0, #7
    a0d8:	e2432008 	sub	r2, r3, #8
    a0dc:	e1a00800 	lsl	r0, r0, #16
    a0e0:	e2833007 	add	r3, r3, #7
    a0e4:	e1a00820 	lsr	r0, r0, #16
    a0e8:	e3a0e002 	mov	lr, #2
    a0ec:	e3a0c013 	mov	ip, #19
    a0f0:	e1a02802 	lsl	r2, r2, #16
    a0f4:	e1a03803 	lsl	r3, r3, #16
    a0f8:	e3a0500d 	mov	r5, #13
    a0fc:	e1a03823 	lsr	r3, r3, #16
    a100:	e1a01000 	mov	r1, r0
    a104:	e1a02822 	lsr	r2, r2, #16
    a108:	e88d4020 	stm	sp, {r5, lr}
    a10c:	e58dc008 	str	ip, [sp, #8]
    a110:	ebfffcfb 	bl	9504 <lcdFillWindow>
    a114:	e9940003 	ldmib	r4, {r0, r1}
    a118:	e2400009 	sub	r0, r0, #9
    a11c:	e2411008 	sub	r1, r1, #8
    a120:	e1a00800 	lsl	r0, r0, #16
    a124:	e1a01801 	lsl	r1, r1, #16
    a128:	e1a00820 	lsr	r0, r0, #16
    a12c:	e1a01821 	lsr	r1, r1, #16
    a130:	e5d42010 	ldrb	r2, [r4, #16]
    a134:	ebfffc5a 	bl	92a4 <lcdDrawChar>
    a138:	e5943004 	ldr	r3, [r4, #4]
    a13c:	e2433001 	sub	r3, r3, #1
    a140:	e5843004 	str	r3, [r4, #4]
    a144:	eaffffb9 	b	a030 <_ZN6player4moveEi+0xac>
    a148:	e3a00003 	mov	r0, #3
    a14c:	e59f1088 	ldr	r1, [pc, #136]	; a1dc <_ZN6player4moveEi+0x258>
    a150:	ebfffaba 	bl	8c40 <lcdRegWrite>
    a154:	e5942008 	ldr	r2, [r4, #8]
    a158:	e1d430b4 	ldrh	r3, [r4, #4]
    a15c:	e2422008 	sub	r2, r2, #8
    a160:	e2430008 	sub	r0, r3, #8
    a164:	e1a02802 	lsl	r2, r2, #16
    a168:	e2833007 	add	r3, r3, #7
    a16c:	e1a02822 	lsr	r2, r2, #16
    a170:	e3a0e002 	mov	lr, #2
    a174:	e3a0c013 	mov	ip, #19
    a178:	e1a01803 	lsl	r1, r3, #16
    a17c:	e1a00800 	lsl	r0, r0, #16
    a180:	e3a0500d 	mov	r5, #13
    a184:	e1a03002 	mov	r3, r2
    a188:	e1a00820 	lsr	r0, r0, #16
    a18c:	e1a01821 	lsr	r1, r1, #16
    a190:	e88d4020 	stm	sp, {r5, lr}
    a194:	e58dc008 	str	ip, [sp, #8]
    a198:	ebfffcd9 	bl	9504 <lcdFillWindow>
    a19c:	e9940003 	ldmib	r4, {r0, r1}
    a1a0:	e2400008 	sub	r0, r0, #8
    a1a4:	e2411007 	sub	r1, r1, #7
    a1a8:	e1a00800 	lsl	r0, r0, #16
    a1ac:	e1a01801 	lsl	r1, r1, #16
    a1b0:	e1a00820 	lsr	r0, r0, #16
    a1b4:	e1a01821 	lsr	r1, r1, #16
    a1b8:	e5d42010 	ldrb	r2, [r4, #16]
    a1bc:	ebfffc38 	bl	92a4 <lcdDrawChar>
    a1c0:	e5943008 	ldr	r3, [r4, #8]
    a1c4:	e2833001 	add	r3, r3, #1
    a1c8:	e5843008 	str	r3, [r4, #8]
    a1cc:	eaffff97 	b	a030 <_ZN6player4moveEi+0xac>
    a1d0:	0000d028 	andeq	sp, r0, r8, lsr #32
    a1d4:	0000d030 	andeq	sp, r0, r0, lsr r0
    a1d8:	0000d038 	andeq	sp, r0, r8, lsr r0
    a1dc:	0000d010 	andeq	sp, r0, r0, lsl r0

0000a1e0 <_ZN6pacman2goEi>:
    a1e0:	e92d4038 	push	{r3, r4, r5, lr}
    a1e4:	e5903004 	ldr	r3, [r0, #4]
    a1e8:	e1a05001 	mov	r5, r1
    a1ec:	e1a02fc3 	asr	r2, r3, #31
    a1f0:	e1a02e22 	lsr	r2, r2, #28
    a1f4:	e0831002 	add	r1, r3, r2
    a1f8:	e201100f 	and	r1, r1, #15
    a1fc:	e0622001 	rsb	r2, r2, r1
    a200:	e3520008 	cmp	r2, #8
    a204:	e1a04000 	mov	r4, r0
    a208:	0a000008 	beq	a230 <_ZN6pacman2goEi+0x50>
    a20c:	e5941000 	ldr	r1, [r4]
    a210:	e1a00004 	mov	r0, r4
    a214:	e0253001 	eor	r3, r5, r1
    a218:	e3130001 	tst	r3, #1
    a21c:	1a000034 	bne	a2f4 <_ZN6pacman2goEi+0x114>
    a220:	e1a01005 	mov	r1, r5
    a224:	ebffff56 	bl	9f84 <_ZN6player4moveEi>
    a228:	e5845000 	str	r5, [r4]
    a22c:	e8bd8038 	pop	{r3, r4, r5, pc}
    a230:	e5902008 	ldr	r2, [r0, #8]
    a234:	e1a01fc2 	asr	r1, r2, #31
    a238:	e1a01e21 	lsr	r1, r1, #28
    a23c:	e0820001 	add	r0, r2, r1
    a240:	e200000f 	and	r0, r0, #15
    a244:	e0611000 	rsb	r1, r1, r0
    a248:	e3510008 	cmp	r1, #8
    a24c:	1affffee 	bne	a20c <_ZN6pacman2goEi+0x2c>
    a250:	e282100f 	add	r1, r2, #15
    a254:	e3520000 	cmp	r2, #0
    a258:	b1a02001 	movlt	r2, r1
    a25c:	e1a00fc2 	asr	r0, r2, #31
    a260:	e1a00f20 	lsr	r0, r0, #30
    a264:	e1a02242 	asr	r2, r2, #4
    a268:	e0821000 	add	r1, r2, r0
    a26c:	e2011003 	and	r1, r1, #3
    a270:	e0601001 	rsb	r1, r0, r1
    a274:	e1a01081 	lsl	r1, r1, #1
    a278:	e3a00003 	mov	r0, #3
    a27c:	e1a00110 	lsl	r0, r0, r1
    a280:	e283c00f 	add	ip, r3, #15
    a284:	e3530000 	cmp	r3, #0
    a288:	b1a0300c 	movlt	r3, ip
    a28c:	e1a03243 	asr	r3, r3, #4
    a290:	e282c003 	add	ip, r2, #3
    a294:	e3520000 	cmp	r2, #0
    a298:	b1a0200c 	movlt	r2, ip
    a29c:	e0833103 	add	r3, r3, r3, lsl #2
    a2a0:	e594c00c 	ldr	ip, [r4, #12]
    a2a4:	e0833142 	add	r3, r3, r2, asr #2
    a2a8:	e08c3003 	add	r3, ip, r3
    a2ac:	e5d32004 	ldrb	r2, [r3, #4]
    a2b0:	e0002002 	and	r2, r0, r2
    a2b4:	e1a02132 	lsr	r2, r2, r1
    a2b8:	e3520002 	cmp	r2, #2
    a2bc:	0a00000e 	beq	a2fc <_ZN6pacman2goEi+0x11c>
    a2c0:	e1a00004 	mov	r0, r4
    a2c4:	e1a01005 	mov	r1, r5
    a2c8:	ebfffee4 	bl	9e60 <_ZN6player7goodDirEi>
    a2cc:	e3500000 	cmp	r0, #0
    a2d0:	1a000012 	bne	a320 <_ZN6pacman2goEi+0x140>
    a2d4:	e5945000 	ldr	r5, [r4]
    a2d8:	e1a00004 	mov	r0, r4
    a2dc:	e1a01005 	mov	r1, r5
    a2e0:	ebfffede 	bl	9e60 <_ZN6player7goodDirEi>
    a2e4:	e3500000 	cmp	r0, #0
    a2e8:	08bd8038 	popeq	{r3, r4, r5, pc}
    a2ec:	e1a00004 	mov	r0, r4
    a2f0:	e1a01005 	mov	r1, r5
    a2f4:	e8bd4038 	pop	{r3, r4, r5, lr}
    a2f8:	eaffff21 	b	9f84 <_ZN6player4moveEi>
    a2fc:	e594c014 	ldr	ip, [r4, #20]
    a300:	e3a02001 	mov	r2, #1
    a304:	e08cc002 	add	ip, ip, r2
    a308:	e584c014 	str	ip, [r4, #20]
    a30c:	e5d3c004 	ldrb	ip, [r3, #4]
    a310:	e1cc0000 	bic	r0, ip, r0
    a314:	e1801112 	orr	r1, r0, r2, lsl r1
    a318:	e5c31004 	strb	r1, [r3, #4]
    a31c:	eaffffe7 	b	a2c0 <_ZN6pacman2goEi+0xe0>
    a320:	e1a00004 	mov	r0, r4
    a324:	e1a01005 	mov	r1, r5
    a328:	e5845000 	str	r5, [r4]
    a32c:	e8bd4038 	pop	{r3, r4, r5, lr}
    a330:	eaffff13 	b	9f84 <_ZN6player4moveEi>

0000a334 <_ZN6player3putEiii>:
    a334:	e92d4ff0 	push	{r4, r5, r6, r7, r8, r9, sl, fp, lr}
    a338:	e1d0c0b8 	ldrh	ip, [r0, #8]
    a33c:	e1d0e0b4 	ldrh	lr, [r0, #4]
    a340:	e24cb008 	sub	fp, ip, #8
    a344:	e1a04000 	mov	r4, r0
    a348:	e28cc007 	add	ip, ip, #7
    a34c:	e24e0008 	sub	r0, lr, #8
    a350:	e28ee007 	add	lr, lr, #7
    a354:	e24dd014 	sub	sp, sp, #20
    a358:	e1a00800 	lsl	r0, r0, #16
    a35c:	e1a0e80e 	lsl	lr, lr, #16
    a360:	e1a0b80b 	lsl	fp, fp, #16
    a364:	e1a0c80c 	lsl	ip, ip, #16
    a368:	e3a0900d 	mov	r9, #13
    a36c:	e3a0a002 	mov	sl, #2
    a370:	e3a08013 	mov	r8, #19
    a374:	e1a05003 	mov	r5, r3
    a378:	e1a07001 	mov	r7, r1
    a37c:	e1a06002 	mov	r6, r2
    a380:	e1a00820 	lsr	r0, r0, #16
    a384:	e1a0182e 	lsr	r1, lr, #16
    a388:	e1a0282b 	lsr	r2, fp, #16
    a38c:	e1a0382c 	lsr	r3, ip, #16
    a390:	e88d0600 	stm	sp, {r9, sl}
    a394:	e58d8008 	str	r8, [sp, #8]
    a398:	ebfffc59 	bl	9504 <lcdFillWindow>
    a39c:	e3550003 	cmp	r5, #3
    a3a0:	979ff105 	ldrls	pc, [pc, r5, lsl #2]
    a3a4:	ea000006 	b	a3c4 <_ZN6player3putEiii+0x90>
    a3a8:	0000a3b8 			; <UNDEFINED> instruction: 0x0000a3b8
    a3ac:	0000a420 	andeq	sl, r0, r0, lsr #8
    a3b0:	0000a410 	andeq	sl, r0, r0, lsl r4
    a3b4:	0000a400 	andeq	sl, r0, r0, lsl #8
    a3b8:	e3a00003 	mov	r0, #3
    a3bc:	e59f106c 	ldr	r1, [pc, #108]	; a430 <_ZN6player3putEiii+0xfc>
    a3c0:	ebfffa1e 	bl	8c40 <lcdRegWrite>
    a3c4:	e1a02207 	lsl	r2, r7, #4
    a3c8:	e1a03206 	lsl	r3, r6, #4
    a3cc:	e2822008 	add	r2, r2, #8
    a3d0:	e2833008 	add	r3, r3, #8
    a3d4:	e1a00a07 	lsl	r0, r7, #20
    a3d8:	e1a01a06 	lsl	r1, r6, #20
    a3dc:	e5842004 	str	r2, [r4, #4]
    a3e0:	e1a00820 	lsr	r0, r0, #16
    a3e4:	e5843008 	str	r3, [r4, #8]
    a3e8:	e1a01821 	lsr	r1, r1, #16
    a3ec:	e5d42010 	ldrb	r2, [r4, #16]
    a3f0:	ebfffbab 	bl	92a4 <lcdDrawChar>
    a3f4:	e5845000 	str	r5, [r4]
    a3f8:	e28dd014 	add	sp, sp, #20
    a3fc:	e8bd8ff0 	pop	{r4, r5, r6, r7, r8, r9, sl, fp, pc}
    a400:	e3a00003 	mov	r0, #3
    a404:	e59f1028 	ldr	r1, [pc, #40]	; a434 <_ZN6player3putEiii+0x100>
    a408:	ebfffa0c 	bl	8c40 <lcdRegWrite>
    a40c:	eaffffec 	b	a3c4 <_ZN6player3putEiii+0x90>
    a410:	e3a00003 	mov	r0, #3
    a414:	e59f101c 	ldr	r1, [pc, #28]	; a438 <_ZN6player3putEiii+0x104>
    a418:	ebfffa08 	bl	8c40 <lcdRegWrite>
    a41c:	eaffffe8 	b	a3c4 <_ZN6player3putEiii+0x90>
    a420:	e3a00003 	mov	r0, #3
    a424:	e59f1010 	ldr	r1, [pc, #16]	; a43c <_ZN6player3putEiii+0x108>
    a428:	ebfffa04 	bl	8c40 <lcdRegWrite>
    a42c:	eaffffe4 	b	a3c4 <_ZN6player3putEiii+0x90>
    a430:	0000d010 	andeq	sp, r0, r0, lsl r0
    a434:	0000d028 	andeq	sp, r0, r8, lsr #32
    a438:	0000d030 	andeq	sp, r0, r0, lsr r0
    a43c:	0000d038 	andeq	sp, r0, r8, lsr r0

0000a440 <_ZN3mapC1Ev>:
    a440:	e3a03000 	mov	r3, #0
    a444:	e1a01003 	mov	r1, r3
    a448:	e0802003 	add	r2, r0, r3
    a44c:	e2833001 	add	r3, r3, #1
    a450:	e353004b 	cmp	r3, #75	; 0x4b
    a454:	e5c21004 	strb	r1, [r2, #4]
    a458:	e3a02000 	mov	r2, #0
    a45c:	1afffff9 	bne	a448 <_ZN3mapC1Ev+0x8>
    a460:	e5802000 	str	r2, [r0]
    a464:	e12fff1e 	bx	lr

0000a468 <_ZN3map7getInfoEii>:
    a468:	e3520000 	cmp	r2, #0
    a46c:	e1a03fc2 	asr	r3, r2, #31
    a470:	e282c003 	add	ip, r2, #3
    a474:	e0811101 	add	r1, r1, r1, lsl #2
    a478:	a1a0c002 	movge	ip, r2
    a47c:	e1a03f23 	lsr	r3, r3, #30
    a480:	e081c14c 	add	ip, r1, ip, asr #2
    a484:	e0822003 	add	r2, r2, r3
    a488:	e080000c 	add	r0, r0, ip
    a48c:	e2022003 	and	r2, r2, #3
    a490:	e5d01004 	ldrb	r1, [r0, #4]
    a494:	e0633002 	rsb	r3, r3, r2
    a498:	e1a03083 	lsl	r3, r3, #1
    a49c:	e3a00003 	mov	r0, #3
    a4a0:	e0010310 	and	r0, r1, r0, lsl r3
    a4a4:	e1a00330 	lsr	r0, r0, r3
    a4a8:	e12fff1e 	bx	lr

0000a4ac <_ZN3map7putInfoEiih>:
    a4ac:	e52d4004 	push	{r4}		; (str r4, [sp, #-4]!)
    a4b0:	e1a0cfc2 	asr	ip, r2, #31
    a4b4:	e3520000 	cmp	r2, #0
    a4b8:	e2824003 	add	r4, r2, #3
    a4bc:	e0811101 	add	r1, r1, r1, lsl #2
    a4c0:	a1a04002 	movge	r4, r2
    a4c4:	e1a0cf2c 	lsr	ip, ip, #30
    a4c8:	e0814144 	add	r4, r1, r4, asr #2
    a4cc:	e082200c 	add	r2, r2, ip
    a4d0:	e0800004 	add	r0, r0, r4
    a4d4:	e2022003 	and	r2, r2, #3
    a4d8:	e06cc002 	rsb	ip, ip, r2
    a4dc:	e5d01004 	ldrb	r1, [r0, #4]
    a4e0:	e1a0c08c 	lsl	ip, ip, #1
    a4e4:	e3a02003 	mov	r2, #3
    a4e8:	e1c12c12 	bic	r2, r1, r2, lsl ip
    a4ec:	e1823c13 	orr	r3, r2, r3, lsl ip
    a4f0:	e5c03004 	strb	r3, [r0, #4]
    a4f4:	e8bd0010 	ldmfd	sp!, {r4}
    a4f8:	e12fff1e 	bx	lr

0000a4fc <_ZN3map5setupEv>:
    a4fc:	e52d4004 	push	{r4}		; (str r4, [sp, #-4]!)
    a500:	e3a03000 	mov	r3, #0
    a504:	e59f4060 	ldr	r4, [pc, #96]	; a56c <_ZN3map5setupEv+0x70>
    a508:	e5803000 	str	r3, [r0]
    a50c:	e3a0c003 	mov	ip, #3
    a510:	e0c21394 	smull	r1, r2, r4, r3
    a514:	e1a01fc3 	asr	r1, r3, #31
    a518:	e0822003 	add	r2, r2, r3
    a51c:	e06121c2 	rsb	r2, r1, r2, asr #3
    a520:	e0621202 	rsb	r1, r2, r2, lsl #4
    a524:	e0611003 	rsb	r1, r1, r3
    a528:	e0811101 	add	r1, r1, r1, lsl #2
    a52c:	e0811142 	add	r1, r1, r2, asr #2
    a530:	e0801001 	add	r1, r0, r1
    a534:	e5d11004 	ldrb	r1, [r1, #4]
    a538:	e2022003 	and	r2, r2, #3
    a53c:	e1a02082 	lsl	r2, r2, #1
    a540:	e001121c 	and	r1, r1, ip, lsl r2
    a544:	e1a02231 	lsr	r2, r1, r2
    a548:	e3520002 	cmp	r2, #2
    a54c:	05902000 	ldreq	r2, [r0]
    a550:	e2833001 	add	r3, r3, #1
    a554:	02822001 	addeq	r2, r2, #1
    a558:	05802000 	streq	r2, [r0]
    a55c:	e3530f4b 	cmp	r3, #300	; 0x12c
    a560:	1affffea 	bne	a510 <_ZN3map5setupEv+0x14>
    a564:	e8bd0010 	ldmfd	sp!, {r4}
    a568:	e12fff1e 	bx	lr
    a56c:	88888889 	stmhi	r8, {r0, r3, r7, fp, pc}

0000a570 <_Z4randv>:
    a570:	e59f3038 	ldr	r3, [pc, #56]	; a5b0 <_Z4randv+0x40>
    a574:	e52d4004 	push	{r4}		; (str r4, [sp, #-4]!)
    a578:	e5931004 	ldr	r1, [r3, #4]
    a57c:	e59f4030 	ldr	r4, [pc, #48]	; a5b4 <_Z4randv+0x44>
    a580:	e3a02005 	mov	r2, #5
    a584:	e3a00000 	mov	r0, #0
    a588:	e083c194 	umull	ip, r3, r4, r1
    a58c:	e1a031a3 	lsr	r3, r3, #3
    a590:	e083c103 	add	ip, r3, r3, lsl #2
    a594:	e041108c 	sub	r1, r1, ip, lsl #1
    a598:	e2522001 	subs	r2, r2, #1
    a59c:	e0810000 	add	r0, r1, r0
    a5a0:	e1a01003 	mov	r1, r3
    a5a4:	1afffff7 	bne	a588 <_Z4randv+0x18>
    a5a8:	e8bd0010 	ldmfd	sp!, {r4}
    a5ac:	e12fff1e 	bx	lr
    a5b0:	20003000 	andcs	r3, r0, r0
    a5b4:	cccccccd 	stclgt	12, cr12, [ip], {205}	; 0xcd

0000a5b8 <_Z9drawPointii>:
    a5b8:	e92d4010 	push	{r4, lr}
    a5bc:	e1a03a01 	lsl	r3, r1, #20
    a5c0:	e1a00a00 	lsl	r0, r0, #20
    a5c4:	e24dd010 	sub	sp, sp, #16
    a5c8:	e2801702 	add	r1, r0, #524288	; 0x80000
    a5cc:	e2832807 	add	r2, r3, #458752	; 0x70000
    a5d0:	e3a0400a 	mov	r4, #10
    a5d4:	e3a0e038 	mov	lr, #56	; 0x38
    a5d8:	e3a0c013 	mov	ip, #19
    a5dc:	e2800807 	add	r0, r0, #458752	; 0x70000
    a5e0:	e2833702 	add	r3, r3, #524288	; 0x80000
    a5e4:	e1a00820 	lsr	r0, r0, #16
    a5e8:	e1a01821 	lsr	r1, r1, #16
    a5ec:	e1a02822 	lsr	r2, r2, #16
    a5f0:	e1a03823 	lsr	r3, r3, #16
    a5f4:	e88d4010 	stm	sp, {r4, lr}
    a5f8:	e58dc008 	str	ip, [sp, #8]
    a5fc:	ebfffbc0 	bl	9504 <lcdFillWindow>
    a600:	e28dd010 	add	sp, sp, #16
    a604:	e8bd8010 	pop	{r4, pc}

0000a608 <_ZN3map12putRectangleEiiiih>:
    a608:	e92d4ff0 	push	{r4, r5, r6, r7, r8, r9, sl, fp, lr}
    a60c:	e24dd014 	sub	sp, sp, #20
    a610:	e59dc038 	ldr	ip, [sp, #56]	; 0x38
    a614:	e1a05003 	mov	r5, r3
    a618:	e05ca003 	subs	sl, ip, r3
    a61c:	e1a04000 	mov	r4, r0
    a620:	e1a0b001 	mov	fp, r1
    a624:	e1a07002 	mov	r7, r2
    a628:	e5dd803c 	ldrb	r8, [sp, #60]	; 0x3c
    a62c:	4a00002b 	bmi	a6e0 <_ZN3map12putRectangleEiiiih+0xd8>
    a630:	e0813101 	add	r3, r1, r1, lsl #2
    a634:	e082c102 	add	ip, r2, r2, lsl #2
    a638:	e3a09000 	mov	r9, #0
    a63c:	e58d3000 	str	r3, [sp]
    a640:	e58dc004 	str	ip, [sp, #4]
    a644:	e0896005 	add	r6, r9, r5
    a648:	e1a03fc6 	asr	r3, r6, #31
    a64c:	e1a03f23 	lsr	r3, r3, #30
    a650:	e0862003 	add	r2, r6, r3
    a654:	e2022003 	and	r2, r2, #3
    a658:	e0632002 	rsb	r2, r3, r2
    a65c:	e3a01003 	mov	r1, #3
    a660:	e1a02082 	lsl	r2, r2, #1
    a664:	e1e00211 	mvn	r0, r1, lsl r2
    a668:	e1a02218 	lsl	r2, r8, r2
    a66c:	e3560000 	cmp	r6, #0
    a670:	e0863001 	add	r3, r6, r1
    a674:	e59dc000 	ldr	ip, [sp]
    a678:	a1a03006 	movge	r3, r6
    a67c:	e1a03143 	asr	r3, r3, #2
    a680:	e08c1003 	add	r1, ip, r3
    a684:	e0841001 	add	r1, r4, r1
    a688:	e5d1e004 	ldrb	lr, [r1, #4]
    a68c:	e59dc004 	ldr	ip, [sp, #4]
    a690:	e20000ff 	and	r0, r0, #255	; 0xff
    a694:	e20220ff 	and	r2, r2, #255	; 0xff
    a698:	e000e00e 	and	lr, r0, lr
    a69c:	e08c3003 	add	r3, ip, r3
    a6a0:	e18ee002 	orr	lr, lr, r2
    a6a4:	e0843003 	add	r3, r4, r3
    a6a8:	e5c1e004 	strb	lr, [r1, #4]
    a6ac:	e5d3e004 	ldrb	lr, [r3, #4]
    a6b0:	e1a01006 	mov	r1, r6
    a6b4:	e000000e 	and	r0, r0, lr
    a6b8:	e1822000 	orr	r2, r2, r0
    a6bc:	e5c32004 	strb	r2, [r3, #4]
    a6c0:	e1a0000b 	mov	r0, fp
    a6c4:	ebffffbb 	bl	a5b8 <_Z9drawPointii>
    a6c8:	e2899001 	add	r9, r9, #1
    a6cc:	e1a00007 	mov	r0, r7
    a6d0:	e1a01006 	mov	r1, r6
    a6d4:	ebffffb7 	bl	a5b8 <_Z9drawPointii>
    a6d8:	e159000a 	cmp	r9, sl
    a6dc:	daffffd8 	ble	a644 <_ZN3map12putRectangleEiiiih+0x3c>
    a6e0:	e057700b 	subs	r7, r7, fp
    a6e4:	4a000042 	bmi	a7f4 <_ZN3map12putRectangleEiiiih+0x1ec>
    a6e8:	e59dc038 	ldr	ip, [sp, #56]	; 0x38
    a6ec:	e1a02fc5 	asr	r2, r5, #31
    a6f0:	e1a03fcc 	asr	r3, ip, #31
    a6f4:	e1a02f22 	lsr	r2, r2, #30
    a6f8:	e1a03f23 	lsr	r3, r3, #30
    a6fc:	e0859002 	add	r9, r5, r2
    a700:	e08c1003 	add	r1, ip, r3
    a704:	e2099003 	and	r9, r9, #3
    a708:	e2011003 	and	r1, r1, #3
    a70c:	e0622009 	rsb	r2, r2, r9
    a710:	e0633001 	rsb	r3, r3, r1
    a714:	e1a03083 	lsl	r3, r3, #1
    a718:	e1a09082 	lsl	r9, r2, #1
    a71c:	e3a0a003 	mov	sl, #3
    a720:	e1e0291a 	mvn	r2, sl, lsl r9
    a724:	e1a09918 	lsl	r9, r8, r9
    a728:	e1a08318 	lsl	r8, r8, r3
    a72c:	e1e0a31a 	mvn	sl, sl, lsl r3
    a730:	e3550000 	cmp	r5, #0
    a734:	e2856003 	add	r6, r5, #3
    a738:	e59d0038 	ldr	r0, [sp, #56]	; 0x38
    a73c:	a1a06005 	movge	r6, r5
    a740:	e1a06146 	asr	r6, r6, #2
    a744:	e08b310b 	add	r3, fp, fp, lsl #2
    a748:	e0833006 	add	r3, r3, r6
    a74c:	e20880ff 	and	r8, r8, #255	; 0xff
    a750:	e3500000 	cmp	r0, #0
    a754:	e28cc003 	add	ip, ip, #3
    a758:	e0844003 	add	r4, r4, r3
    a75c:	e20aa0ff 	and	sl, sl, #255	; 0xff
    a760:	e1a03005 	mov	r3, r5
    a764:	a1a0c000 	movge	ip, r0
    a768:	e20220ff 	and	r2, r2, #255	; 0xff
    a76c:	e20990ff 	and	r9, r9, #255	; 0xff
    a770:	e58d800c 	str	r8, [sp, #12]
    a774:	e3a08000 	mov	r8, #0
    a778:	e58da008 	str	sl, [sp, #8]
    a77c:	e1a05008 	mov	r5, r8
    a780:	e58d2000 	str	r2, [sp]
    a784:	e58d9004 	str	r9, [sp, #4]
    a788:	e2844004 	add	r4, r4, #4
    a78c:	e1a0a14c 	asr	sl, ip, #2
    a790:	e1a08003 	mov	r8, r3
    a794:	e5d42000 	ldrb	r2, [r4]
    a798:	e59d3000 	ldr	r3, [sp]
    a79c:	e59dc004 	ldr	ip, [sp, #4]
    a7a0:	e0022003 	and	r2, r2, r3
    a7a4:	e182200c 	orr	r2, r2, ip
    a7a8:	e5c42000 	strb	r2, [r4]
    a7ac:	e0661004 	rsb	r1, r6, r4
    a7b0:	e7d1000a 	ldrb	r0, [r1, sl]
    a7b4:	e59d3008 	ldr	r3, [sp, #8]
    a7b8:	e59dc00c 	ldr	ip, [sp, #12]
    a7bc:	e0000003 	and	r0, r0, r3
    a7c0:	e180000c 	orr	r0, r0, ip
    a7c4:	e085900b 	add	r9, r5, fp
    a7c8:	e7c1000a 	strb	r0, [r1, sl]
    a7cc:	e1a00009 	mov	r0, r9
    a7d0:	e1a01008 	mov	r1, r8
    a7d4:	ebffff77 	bl	a5b8 <_Z9drawPointii>
    a7d8:	e2855001 	add	r5, r5, #1
    a7dc:	e1a00009 	mov	r0, r9
    a7e0:	e59d1038 	ldr	r1, [sp, #56]	; 0x38
    a7e4:	ebffff73 	bl	a5b8 <_Z9drawPointii>
    a7e8:	e1550007 	cmp	r5, r7
    a7ec:	e2844005 	add	r4, r4, #5
    a7f0:	daffffe7 	ble	a794 <_ZN3map12putRectangleEiiiih+0x18c>
    a7f4:	e28dd014 	add	sp, sp, #20
    a7f8:	e8bd8ff0 	pop	{r4, r5, r6, r7, r8, r9, sl, fp, pc}

0000a7fc <_ZN5enemy2goEv>:
    a7fc:	e92d45f8 	push	{r3, r4, r5, r6, r7, r8, sl, lr}
    a800:	e990000c 	ldmib	r0, {r2, r3}
    a804:	e1a04fc2 	asr	r4, r2, #31
    a808:	e1a01fc3 	asr	r1, r3, #31
    a80c:	e1a04e24 	lsr	r4, r4, #28
    a810:	e1a01e21 	lsr	r1, r1, #28
    a814:	e1a08000 	mov	r8, r0
    a818:	e083c001 	add	ip, r3, r1
    a81c:	e0820004 	add	r0, r2, r4
    a820:	e200000f 	and	r0, r0, #15
    a824:	e20cc00f 	and	ip, ip, #15
    a828:	e0640000 	rsb	r0, r4, r0
    a82c:	e061c00c 	rsb	ip, r1, ip
    a830:	e3500008 	cmp	r0, #8
    a834:	035c0008 	cmpeq	ip, #8
    a838:	03a07000 	moveq	r7, #0
    a83c:	13a07001 	movne	r7, #1
    a840:	0a000007 	beq	a864 <_ZN5enemy2goEv+0x68>
    a844:	e5981000 	ldr	r1, [r8]
    a848:	e3510003 	cmp	r1, #3
    a84c:	979ff101 	ldrls	pc, [pc, r1, lsl #2]
    a850:	ea000033 	b	a924 <_ZN5enemy2goEv+0x128>
    a854:	0000a9a8 	andeq	sl, r0, r8, lsr #19
    a858:	0000a9d4 	ldrdeq	sl, [r0], -r4
    a85c:	0000aa00 	andeq	sl, r0, r0, lsl #20
    a860:	0000a928 	andeq	sl, r0, r8, lsr #18
    a864:	e59f6210 	ldr	r6, [pc, #528]	; aa7c <_ZN5enemy2goEv+0x280>
    a868:	e59f4210 	ldr	r4, [pc, #528]	; aa80 <_ZN5enemy2goEv+0x284>
    a86c:	e59f5210 	ldr	r5, [pc, #528]	; aa84 <_ZN5enemy2goEv+0x288>
    a870:	e5961004 	ldr	r1, [r6, #4]
    a874:	e3a02005 	mov	r2, #5
    a878:	e3a0c000 	mov	ip, #0
    a87c:	e0830194 	umull	r0, r3, r4, r1
    a880:	e1a031a3 	lsr	r3, r3, #3
    a884:	e0830103 	add	r0, r3, r3, lsl #2
    a888:	e0411080 	sub	r1, r1, r0, lsl #1
    a88c:	e2522001 	subs	r2, r2, #1
    a890:	e081c00c 	add	ip, r1, ip
    a894:	e1a01003 	mov	r1, r3
    a898:	1afffff7 	bne	a87c <_ZN5enemy2goEv+0x80>
    a89c:	e2877001 	add	r7, r7, #1
    a8a0:	e0c23795 	smull	r3, r2, r5, r7
    a8a4:	e1a03fc7 	asr	r3, r7, #31
    a8a8:	e0633142 	rsb	r3, r3, r2, asr #2
    a8ac:	e1a0afcc 	asr	sl, ip, #31
    a8b0:	e0833103 	add	r3, r3, r3, lsl #2
    a8b4:	e0472083 	sub	r2, r7, r3, lsl #1
    a8b8:	e1a03f2a 	lsr	r3, sl, #30
    a8bc:	e08ca003 	add	sl, ip, r3
    a8c0:	e2822030 	add	r2, r2, #48	; 0x30
    a8c4:	e20220ff 	and	r2, r2, #255	; 0xff
    a8c8:	e20aa003 	and	sl, sl, #3
    a8cc:	e3a0000a 	mov	r0, #10
    a8d0:	e3a01f4b 	mov	r1, #300	; 0x12c
    a8d4:	e063a00a 	rsb	sl, r3, sl
    a8d8:	ebfffa71 	bl	92a4 <lcdDrawChar>
    a8dc:	e5982000 	ldr	r2, [r8]
    a8e0:	e2822002 	add	r2, r2, #2
    a8e4:	e1a03fc2 	asr	r3, r2, #31
    a8e8:	e1a03f23 	lsr	r3, r3, #30
    a8ec:	e0822003 	add	r2, r2, r3
    a8f0:	e2022003 	and	r2, r2, #3
    a8f4:	e0633002 	rsb	r3, r3, r2
    a8f8:	e153000a 	cmp	r3, sl
    a8fc:	0affffdb 	beq	a870 <_ZN5enemy2goEv+0x74>
    a900:	e1a00008 	mov	r0, r8
    a904:	e1a0100a 	mov	r1, sl
    a908:	ebfffd54 	bl	9e60 <_ZN6player7goodDirEi>
    a90c:	e3500000 	cmp	r0, #0
    a910:	0affffd6 	beq	a870 <_ZN5enemy2goEv+0x74>
    a914:	e1a00008 	mov	r0, r8
    a918:	e1a0100a 	mov	r1, sl
    a91c:	ebfffd98 	bl	9f84 <_ZN6player4moveEi>
    a920:	e588a000 	str	sl, [r8]
    a924:	e8bd85f8 	pop	{r3, r4, r5, r6, r7, r8, sl, pc}
    a928:	e3500001 	cmp	r0, #1
    a92c:	1a000042 	bne	aa3c <_ZN5enemy2goEv+0x240>
    a930:	e252c011 	subs	ip, r2, #17
    a934:	e283000f 	add	r0, r3, #15
    a938:	42422002 	submi	r2, r2, #2
    a93c:	51a0200c 	movpl	r2, ip
    a940:	e3530000 	cmp	r3, #0
    a944:	b1a03000 	movlt	r3, r0
    a948:	e1a03243 	asr	r3, r3, #4
    a94c:	e1a00242 	asr	r0, r2, #4
    a950:	e3530000 	cmp	r3, #0
    a954:	e1a02fc3 	asr	r2, r3, #31
    a958:	e2836003 	add	r6, r3, #3
    a95c:	e1a02f22 	lsr	r2, r2, #30
    a960:	a1a06003 	movge	r6, r3
    a964:	e080c100 	add	ip, r0, r0, lsl #2
    a968:	e598500c 	ldr	r5, [r8, #12]
    a96c:	e0834002 	add	r4, r3, r2
    a970:	e08cc146 	add	ip, ip, r6, asr #2
    a974:	e2044003 	and	r4, r4, #3
    a978:	e085c00c 	add	ip, r5, ip
    a97c:	e0622004 	rsb	r2, r2, r4
    a980:	e5dcc004 	ldrb	ip, [ip, #4]
    a984:	e1a02082 	lsl	r2, r2, #1
    a988:	e3a04003 	mov	r4, #3
    a98c:	e00cc214 	and	ip, ip, r4, lsl r2
    a990:	e1a0223c 	lsr	r2, ip, r2
    a994:	e3520002 	cmp	r2, #2
    a998:	0a000023 	beq	aa2c <_ZN5enemy2goEv+0x230>
    a99c:	e1a00008 	mov	r0, r8
    a9a0:	e8bd45f8 	pop	{r3, r4, r5, r6, r7, r8, sl, lr}
    a9a4:	eafffd76 	b	9f84 <_ZN6player4moveEi>
    a9a8:	e35c0001 	cmp	ip, #1
    a9ac:	1a00002e 	bne	aa6c <_ZN5enemy2goEv+0x270>
    a9b0:	e282000f 	add	r0, r2, #15
    a9b4:	e3520000 	cmp	r2, #0
    a9b8:	b1a02000 	movlt	r2, r0
    a9bc:	e2530011 	subs	r0, r3, #17
    a9c0:	42433002 	submi	r3, r3, #2
    a9c4:	51a03000 	movpl	r3, r0
    a9c8:	e1a03243 	asr	r3, r3, #4
    a9cc:	e1a00242 	asr	r0, r2, #4
    a9d0:	eaffffde 	b	a950 <_ZN5enemy2goEv+0x154>
    a9d4:	e350000f 	cmp	r0, #15
    a9d8:	1a00001f 	bne	aa5c <_ZN5enemy2goEv+0x260>
    a9dc:	e292c009 	adds	ip, r2, #9
    a9e0:	e283000f 	add	r0, r3, #15
    a9e4:	42822018 	addmi	r2, r2, #24
    a9e8:	51a0200c 	movpl	r2, ip
    a9ec:	e3530000 	cmp	r3, #0
    a9f0:	b1a03000 	movlt	r3, r0
    a9f4:	e1a03243 	asr	r3, r3, #4
    a9f8:	e1a00242 	asr	r0, r2, #4
    a9fc:	eaffffd3 	b	a950 <_ZN5enemy2goEv+0x154>
    aa00:	e35c000f 	cmp	ip, #15
    aa04:	1a000010 	bne	aa4c <_ZN5enemy2goEv+0x250>
    aa08:	e282000f 	add	r0, r2, #15
    aa0c:	e3520000 	cmp	r2, #0
    aa10:	b1a02000 	movlt	r2, r0
    aa14:	e2930009 	adds	r0, r3, #9
    aa18:	42833018 	addmi	r3, r3, #24
    aa1c:	51a03000 	movpl	r3, r0
    aa20:	e1a03243 	asr	r3, r3, #4
    aa24:	e1a00242 	asr	r0, r2, #4
    aa28:	eaffffc8 	b	a950 <_ZN5enemy2goEv+0x154>
    aa2c:	e1a01003 	mov	r1, r3
    aa30:	ebfffee0 	bl	a5b8 <_Z9drawPointii>
    aa34:	e5981000 	ldr	r1, [r8]
    aa38:	eaffffd7 	b	a99c <_ZN5enemy2goEv+0x1a0>
    aa3c:	e1a00008 	mov	r0, r8
    aa40:	e3a01003 	mov	r1, #3
    aa44:	e8bd45f8 	pop	{r3, r4, r5, r6, r7, r8, sl, lr}
    aa48:	eafffd4d 	b	9f84 <_ZN6player4moveEi>
    aa4c:	e1a00008 	mov	r0, r8
    aa50:	e3a01002 	mov	r1, #2
    aa54:	e8bd45f8 	pop	{r3, r4, r5, r6, r7, r8, sl, lr}
    aa58:	eafffd49 	b	9f84 <_ZN6player4moveEi>
    aa5c:	e1a00008 	mov	r0, r8
    aa60:	e3a01001 	mov	r1, #1
    aa64:	e8bd45f8 	pop	{r3, r4, r5, r6, r7, r8, sl, lr}
    aa68:	eafffd45 	b	9f84 <_ZN6player4moveEi>
    aa6c:	e1a00008 	mov	r0, r8
    aa70:	e3a01000 	mov	r1, #0
    aa74:	e8bd45f8 	pop	{r3, r4, r5, r6, r7, r8, sl, lr}
    aa78:	eafffd41 	b	9f84 <_ZN6player4moveEi>
    aa7c:	20003000 	andcs	r3, r0, r0
    aa80:	cccccccd 	stclgt	12, cr12, [ip], {205}	; 0xcd
    aa84:	66666667 	strbtvs	r6, [r6], -r7, ror #12

0000aa88 <_Z8keyToDiri>:
    aa88:	e2400001 	sub	r0, r0, #1
    aa8c:	e3500005 	cmp	r0, #5
    aa90:	959f3008 	ldrls	r3, [pc, #8]	; aaa0 <_Z8keyToDiri+0x18>
    aa94:	97930100 	ldrls	r0, [r3, r0, lsl #2]
    aa98:	83a00004 	movhi	r0, #4
    aa9c:	e12fff1e 	bx	lr
    aaa0:	0000b9a0 	andeq	fp, r0, r0, lsr #19

0000aaa4 <_Z10pacmanGamev>:
    aaa4:	e92d41f0 	push	{r4, r5, r6, r7, r8, lr}
    aaa8:	e59f4264 	ldr	r4, [pc, #612]	; ad14 <_Z10pacmanGamev+0x270>
    aaac:	e24dd0c0 	sub	sp, sp, #192	; 0xc0
    aab0:	e3a05000 	mov	r5, #0
    aab4:	e3a00020 	mov	r0, #32
    aab8:	e3a01000 	mov	r1, #0
    aabc:	e5845000 	str	r5, [r4]
    aac0:	ebfff85e 	bl	8c40 <lcdRegWrite>
    aac4:	e3a00021 	mov	r0, #33	; 0x21
    aac8:	e3a01000 	mov	r1, #0
    aacc:	ebfff85b 	bl	8c40 <lcdRegWrite>
    aad0:	e5943000 	ldr	r3, [r4]
    aad4:	e3530001 	cmp	r3, #1
    aad8:	0afffff5 	beq	aab4 <_Z10pacmanGamev+0x10>
    aadc:	e3a00b4b 	mov	r0, #76800	; 0x12c00
    aae0:	e3a0100d 	mov	r1, #13
    aae4:	e3a02002 	mov	r2, #2
    aae8:	e3a03013 	mov	r3, #19
    aaec:	ebfff9c1 	bl	91f8 <lcdPixelsDraw>
    aaf0:	e3a0400a 	mov	r4, #10
    aaf4:	e59fc21c 	ldr	ip, [pc, #540]	; ad18 <_Z10pacmanGamev+0x274>
    aaf8:	e59f321c 	ldr	r3, [pc, #540]	; ad1c <_Z10pacmanGamev+0x278>
    aafc:	e3a0e038 	mov	lr, #56	; 0x38
    ab00:	e3a05002 	mov	r5, #2
    ab04:	e3a0600d 	mov	r6, #13
    ab08:	e3a07013 	mov	r7, #19
    ab0c:	e1a01004 	mov	r1, r4
    ab10:	e1a00004 	mov	r0, r4
    ab14:	e59f2204 	ldr	r2, [pc, #516]	; ad20 <_Z10pacmanGamev+0x27c>
    ab18:	e5cc6000 	strb	r6, [ip]
    ab1c:	e5cc5002 	strb	r5, [ip, #2]
    ab20:	e5cc7001 	strb	r7, [ip, #1]
    ab24:	e5c3e002 	strb	lr, [r3, #2]
    ab28:	e5c37001 	strb	r7, [r3, #1]
    ab2c:	e5c34000 	strb	r4, [r3]
    ab30:	ebfffa4e 	bl	9470 <lcdPrint>
    ab34:	e59f01e8 	ldr	r0, [pc, #488]	; ad24 <_Z10pacmanGamev+0x280>
    ab38:	ebfff57e 	bl	8138 <wait>
    ab3c:	e3a00000 	mov	r0, #0
    ab40:	e1a02000 	mov	r2, r0
    ab44:	e3a010ef 	mov	r1, #239	; 0xef
    ab48:	e59f31d8 	ldr	r3, [pc, #472]	; ad28 <_Z10pacmanGamev+0x284>
    ab4c:	e58d7008 	str	r7, [sp, #8]
    ab50:	e58d6000 	str	r6, [sp]
    ab54:	e58d5004 	str	r5, [sp, #4]
    ab58:	ebfffa69 	bl	9504 <lcdFillWindow>
    ab5c:	e28d0070 	add	r0, sp, #112	; 0x70
    ab60:	ebfffe36 	bl	a440 <_ZN3mapC1Ev>
    ab64:	e3a0800e 	mov	r8, #14
    ab68:	e88d0030 	stm	sp, {r4, r5}
    ab6c:	e1a02004 	mov	r2, r4
    ab70:	e28d0070 	add	r0, sp, #112	; 0x70
    ab74:	e3a01001 	mov	r1, #1
    ab78:	e3a03000 	mov	r3, #0
    ab7c:	ebfffea1 	bl	a608 <_ZN3map12putRectangleEiiiih>
    ab80:	e3a07005 	mov	r7, #5
    ab84:	e1a02004 	mov	r2, r4
    ab88:	e1a03004 	mov	r3, r4
    ab8c:	e58d5004 	str	r5, [sp, #4]
    ab90:	e28d0070 	add	r0, sp, #112	; 0x70
    ab94:	e3a01001 	mov	r1, #1
    ab98:	e58d8000 	str	r8, [sp]
    ab9c:	ebfffe99 	bl	a608 <_ZN3map12putRectangleEiiiih>
    aba0:	e1a01004 	mov	r1, r4
    aba4:	e1a02006 	mov	r2, r6
    aba8:	e58d5004 	str	r5, [sp, #4]
    abac:	e28d0070 	add	r0, sp, #112	; 0x70
    abb0:	e58d7000 	str	r7, [sp]
    abb4:	e3a03000 	mov	r3, #0
    abb8:	ebfffe92 	bl	a608 <_ZN3map12putRectangleEiiiih>
    abbc:	e1a01004 	mov	r1, r4
    abc0:	e1a02006 	mov	r2, r6
    abc4:	e1a03007 	mov	r3, r7
    abc8:	e58d5004 	str	r5, [sp, #4]
    abcc:	e28d0070 	add	r0, sp, #112	; 0x70
    abd0:	e58d8000 	str	r8, [sp]
    abd4:	ebfffe8b 	bl	a608 <_ZN3map12putRectangleEiiiih>
    abd8:	e28d0070 	add	r0, sp, #112	; 0x70
    abdc:	ebfffe46 	bl	a4fc <_ZN3map5setupEv>
    abe0:	e28d3070 	add	r3, sp, #112	; 0x70
    abe4:	e3a01001 	mov	r1, #1
    abe8:	e3a02000 	mov	r2, #0
    abec:	e28d001c 	add	r0, sp, #28
    abf0:	ebfffc86 	bl	9e10 <_ZN5enemyC1EiiP3map>
    abf4:	e1a02008 	mov	r2, r8
    abf8:	e28d3070 	add	r3, sp, #112	; 0x70
    abfc:	e3a01001 	mov	r1, #1
    ac00:	e28d0030 	add	r0, sp, #48	; 0x30
    ac04:	ebfffc81 	bl	9e10 <_ZN5enemyC1EiiP3map>
    ac08:	e1a01007 	mov	r1, r7
    ac0c:	e28d3070 	add	r3, sp, #112	; 0x70
    ac10:	e3a02000 	mov	r2, #0
    ac14:	e28d0044 	add	r0, sp, #68	; 0x44
    ac18:	ebfffc7c 	bl	9e10 <_ZN5enemyC1EiiP3map>
    ac1c:	e28d3070 	add	r3, sp, #112	; 0x70
    ac20:	e28d0058 	add	r0, sp, #88	; 0x58
    ac24:	e3a01001 	mov	r1, #1
    ac28:	e3a02008 	mov	r2, #8
    ac2c:	ebfffc62 	bl	9dbc <_ZN6pacmanC1EiiP3map>
    ac30:	e59f60f4 	ldr	r6, [pc, #244]	; ad2c <_Z10pacmanGamev+0x288>
    ac34:	e59f50f4 	ldr	r5, [pc, #244]	; ad30 <_Z10pacmanGamev+0x28c>
    ac38:	e59f70f4 	ldr	r7, [pc, #244]	; ad34 <_Z10pacmanGamev+0x290>
    ac3c:	e3a04000 	mov	r4, #0
    ac40:	ea000000 	b	ac48 <_Z10pacmanGamev+0x1a4>
    ac44:	ebfff53b 	bl	8138 <wait>
    ac48:	e2844001 	add	r4, r4, #1
    ac4c:	e28d001c 	add	r0, sp, #28
    ac50:	ebfffee9 	bl	a7fc <_ZN5enemy2goEv>
    ac54:	e0c23495 	smull	r3, r2, r5, r4
    ac58:	e1a03fc4 	asr	r3, r4, #31
    ac5c:	e0633142 	rsb	r3, r3, r2, asr #2
    ac60:	e0833103 	add	r3, r3, r3, lsl #2
    ac64:	e0442083 	sub	r2, r4, r3, lsl #1
    ac68:	e2822030 	add	r2, r2, #48	; 0x30
    ac6c:	e20220ff 	and	r2, r2, #255	; 0xff
    ac70:	e3a01f4b 	mov	r1, #300	; 0x12c
    ac74:	e3a0001e 	mov	r0, #30
    ac78:	ebfff989 	bl	92a4 <lcdDrawChar>
    ac7c:	e28d0030 	add	r0, sp, #48	; 0x30
    ac80:	ebfffedd 	bl	a7fc <_ZN5enemy2goEv>
    ac84:	e28d0044 	add	r0, sp, #68	; 0x44
    ac88:	ebfffedb 	bl	a7fc <_ZN5enemy2goEv>
    ac8c:	e5963000 	ldr	r3, [r6]
    ac90:	e3a01004 	mov	r1, #4
    ac94:	e2433001 	sub	r3, r3, #1
    ac98:	e3530005 	cmp	r3, #5
    ac9c:	97971103 	ldrls	r1, [r7, r3, lsl #2]
    aca0:	e28d0058 	add	r0, sp, #88	; 0x58
    aca4:	ebfffd4d 	bl	a1e0 <_ZN6pacman2goEi>
    aca8:	e3a00099 	mov	r0, #153	; 0x99
    acac:	e28d1014 	add	r1, sp, #20
    acb0:	ebfffc1d 	bl	9d2c <_Z8intToStriPc>
    acb4:	e3a00032 	mov	r0, #50	; 0x32
    acb8:	e28d2014 	add	r2, sp, #20
    acbc:	e3a01e11 	mov	r1, #272	; 0x110
    acc0:	ebfff9ea 	bl	9470 <lcdPrint>
    acc4:	e59d206c 	ldr	r2, [sp, #108]	; 0x6c
    acc8:	e59d3070 	ldr	r3, [sp, #112]	; 0x70
    accc:	e59f0064 	ldr	r0, [pc, #100]	; ad38 <_Z10pacmanGamev+0x294>
    acd0:	e1520003 	cmp	r2, r3
    acd4:	1affffda 	bne	ac44 <_Z10pacmanGamev+0x1a0>
    acd8:	e3a00000 	mov	r0, #0
    acdc:	e3a0100d 	mov	r1, #13
    ace0:	e3a02002 	mov	r2, #2
    ace4:	e3a03013 	mov	r3, #19
    ace8:	e88d000e 	stm	sp, {r1, r2, r3}
    acec:	e1a02000 	mov	r2, r0
    acf0:	e3a010ef 	mov	r1, #239	; 0xef
    acf4:	e2833f4b 	add	r3, r3, #300	; 0x12c
    acf8:	ebfffa01 	bl	9504 <lcdFillWindow>
    acfc:	e3a00070 	mov	r0, #112	; 0x70
    ad00:	e3a01032 	mov	r1, #50	; 0x32
    ad04:	e59f2030 	ldr	r2, [pc, #48]	; ad3c <_Z10pacmanGamev+0x298>
    ad08:	ebfff9d8 	bl	9470 <lcdPrint>
    ad0c:	e28dd0c0 	add	sp, sp, #192	; 0xc0
    ad10:	e8bd81f0 	pop	{r4, r5, r6, r7, r8, pc}
    ad14:	0000bb44 	andeq	fp, r0, r4, asr #22
    ad18:	0000b9d0 	ldrdeq	fp, [r0], -r0
    ad1c:	0000ada8 	andeq	sl, r0, r8, lsr #27
    ad20:	0000bc4c 	andeq	fp, r0, ip, asr #24
    ad24:	000f4240 	andeq	r4, pc, r0, asr #4
    ad28:	0000013f 	andeq	r0, r0, pc, lsr r1
    ad2c:	0000ad80 	andeq	sl, r0, r0, lsl #27
    ad30:	66666667 	strbtvs	r6, [r6], -r7, ror #12
    ad34:	0000b9a0 	andeq	fp, r0, r0, lsr #19
    ad38:	00002710 	andeq	r2, r0, r0, lsl r7
    ad3c:	0000bc54 	andeq	fp, r0, r4, asr ip

Disassembly of section .data:

0000ad40 <lowCounterSave>:
    ad40:	00000000 	andeq	r0, r0, r0

0000ad44 <highCounterSave>:
    ad44:	00000000 	andeq	r0, r0, r0

0000ad48 <gpioBase>:
    ad48:	20200000 	eorcs	r0, r0, r0

0000ad4c <gppud>:
    ad4c:	20200094 	mlacs	r0, r4, r0, r0

0000ad50 <gpclear0>:
    ad50:	20200028 	eorcs	r0, r0, r8, lsr #32

0000ad54 <gpset0>:
    ad54:	2020001c 	eorcs	r0, r0, ip, lsl r0

0000ad58 <gplev0>:
    ad58:	20200034 	eorcs	r0, r0, r4, lsr r0

0000ad5c <gpren0>:
    ad5c:	2020004c 	eorcs	r0, r0, ip, asr #32

0000ad60 <brick>:
    ad60:	00000000 	andeq	r0, r0, r0
    ad64:	00100010 	andseq	r0, r0, r0, lsl r0
    ad68:	0013380a 	andseq	r3, r3, sl, lsl #16

0000ad6c <flier>:
    ad6c:	00000000 	andeq	r0, r0, r0
    ad70:	000a0064 	andeq	r0, sl, r4, rrx
    ad74:	000a0a3e 	andeq	r0, sl, lr, lsr sl

0000ad78 <irqEnable2>:
    ad78:	2000b214 	andcs	fp, r0, r4, lsl r2

0000ad7c <irqEnable1>:
    ad7c:	2000b210 	andcs	fp, r0, r0, lsl r2

0000ad80 <kBuffer>:
    ad80:	00000010 	andeq	r0, r0, r0, lsl r0

0000ad84 <pinToGpio>:
    ad84:	0016000c 	andseq	r0, r6, ip
    ad88:	00180017 	andseq	r0, r8, r7, lsl r0
    ad8c:	000f000e 	andeq	r0, pc, lr
    ad90:	00120011 	andseq	r0, r2, r1, lsl r0
    ad94:	0000001b 	andeq	r0, r0, fp, lsl r0

0000ad98 <keyboardArray>:
    ad98:	41333231 	teqmi	r3, r1, lsr r2
    ad9c:	42363534 	eorsmi	r3, r6, #52, 10	; 0xd000000
    ada0:	43393837 	teqmi	r9, #3604480	; 0x370000
    ada4:	4423302a 	strtmi	r3, [r3], #-42	; 0x2a

0000ada8 <font>:
    ada8:	003f3f3f 	eorseq	r3, pc, pc, lsr pc	; <UNPREDICTABLE>

0000adac <spiControl>:
    adac:	20204000 	eorcs	r4, r0, r0

0000adb0 <spiClock>:
    adb0:	20204008 	eorcs	r4, r0, r8

0000adb4 <spiFIFO>:
    adb4:	20204004 	eorcs	r4, r0, r4

0000adb8 <timercs>:
    adb8:	20003000 	andcs	r3, r0, r0

Disassembly of section .rodata:

0000adbc <Sinclair_Inverted_M>:
    adbc:	5f201010 	svcpl	0x00201010
	...
    ade0:	c000c000 	andgt	ip, r0, r0
    ade4:	c000c000 	andgt	ip, r0, r0
    ade8:	c000c000 	andgt	ip, r0, r0
    adec:	c000c000 	andgt	ip, r0, r0
    adf0:	c000c000 	andgt	ip, r0, r0
    adf4:	00000000 	andeq	r0, r0, r0
    adf8:	c000c000 	andgt	ip, r0, r0
    adfc:	00000000 	andeq	r0, r0, r0
    ae00:	30033003 	andcc	r3, r3, r3
    ae04:	30033003 	andcc	r3, r3, r3
	...
    ae24:	300c300c 	andcc	r3, ip, ip
    ae28:	fc3ffc3f 	ldc2	12, cr15, [pc], #-252	; ad34 <_Z10pacmanGamev+0x290>
    ae2c:	300c300c 	andcc	r3, ip, ip
    ae30:	300c300c 	andcc	r3, ip, ip
    ae34:	fc3ffc3f 	ldc2	12, cr15, [pc], #-252	; ad40 <lowCounterSave>
    ae38:	300c300c 	andcc	r3, ip, ip
    ae3c:	00000000 	andeq	r0, r0, r0
    ae40:	00030003 	andeq	r0, r3, r3
    ae44:	f03ff03f 			; <UNDEFINED> instruction: 0xf03ff03f
    ae48:	00330033 	eorseq	r0, r3, r3, lsr r0
    ae4c:	f03ff03f 			; <UNDEFINED> instruction: 0xf03ff03f
    ae50:	30033003 	andcc	r3, r3, r3
    ae54:	f03ff03f 			; <UNDEFINED> instruction: 0xf03ff03f
    ae58:	00030003 	andeq	r0, r3, r3
	...
    ae64:	0c3c0c3c 	ldceq	12, cr0, [ip], #-240	; 0xffffff10
    ae68:	303c303c 	eorscc	r3, ip, ip, lsr r0
    ae6c:	c000c000 	andgt	ip, r0, r0
    ae70:	00030003 	andeq	r0, r3, r3
    ae74:	3c0c3c0c 	stccc	12, cr3, [ip], {12}
    ae78:	3c303c30 	ldccc	12, cr3, [r0], #-192	; 0xffffff40
	...
    ae84:	00030003 	andeq	r0, r3, r3
    ae88:	c00cc00c 	andgt	ip, ip, ip
    ae8c:	00030003 	andeq	r0, r3, r3
    ae90:	cc0ccc0c 	stcgt	12, cr12, [ip], {12}
    ae94:	30303030 	eorscc	r3, r0, r0, lsr r0
    ae98:	cc0fcc0f 	stcgt	12, cr12, [pc], {15}
	...
    aea4:	c000c000 	andgt	ip, r0, r0
    aea8:	00030003 	andeq	r0, r3, r3
	...
    aec4:	c000c000 	andgt	ip, r0, r0
    aec8:	00030003 	andeq	r0, r3, r3
    aecc:	00030003 	andeq	r0, r3, r3
    aed0:	00030003 	andeq	r0, r3, r3
    aed4:	00030003 	andeq	r0, r3, r3
    aed8:	c000c000 	andgt	ip, r0, r0
	...
    aee4:	00030003 	andeq	r0, r3, r3
    aee8:	c000c000 	andgt	ip, r0, r0
    aeec:	c000c000 	andgt	ip, r0, r0
    aef0:	c000c000 	andgt	ip, r0, r0
    aef4:	c000c000 	andgt	ip, r0, r0
    aef8:	00030003 	andeq	r0, r3, r3
	...
    af08:	c00cc00c 	andgt	ip, ip, ip
    af0c:	00030003 	andeq	r0, r3, r3
    af10:	f03ff03f 			; <UNDEFINED> instruction: 0xf03ff03f
    af14:	00030003 	andeq	r0, r3, r3
    af18:	c00cc00c 	andgt	ip, ip, ip
	...
    af28:	00030003 	andeq	r0, r3, r3
    af2c:	00030003 	andeq	r0, r3, r3
    af30:	f03ff03f 			; <UNDEFINED> instruction: 0xf03ff03f
    af34:	00030003 	andeq	r0, r3, r3
    af38:	00030003 	andeq	r0, r3, r3
	...
    af54:	c000c000 	andgt	ip, r0, r0
    af58:	c000c000 	andgt	ip, r0, r0
    af5c:	00030003 	andeq	r0, r3, r3
	...
    af70:	f03ff03f 			; <UNDEFINED> instruction: 0xf03ff03f
	...
    af94:	c003c003 	andgt	ip, r3, r3
    af98:	c003c003 	andgt	ip, r3, r3
	...
    afa8:	30003000 	andcc	r3, r0, r0
    afac:	c000c000 	andgt	ip, r0, r0
    afb0:	00030003 	andeq	r0, r3, r3
    afb4:	000c000c 	andeq	r0, ip, ip
    afb8:	00300030 	eorseq	r0, r0, r0, lsr r0
	...
    afc4:	c03fc03f 	eorsgt	ip, pc, pc, lsr r0	; <UNPREDICTABLE>
    afc8:	f0c0f0c0 			; <UNDEFINED> instruction: 0xf0c0f0c0
    afcc:	30c330c3 	sbccc	r3, r3, r3, asr #1
    afd0:	30cc30cc 	sbccc	r3, ip, ip, asr #1
    afd4:	30f030f0 	ldrshtcc	r3, [r0], #0
    afd8:	c03fc03f 	eorsgt	ip, pc, pc, lsr r0	; <UNPREDICTABLE>
	...
    afe4:	003c003c 	eorseq	r0, ip, ip, lsr r0
    afe8:	00cc00cc 	sbceq	r0, ip, ip, asr #1
    afec:	000c000c 	andeq	r0, ip, ip
    aff0:	000c000c 	andeq	r0, ip, ip
    aff4:	000c000c 	andeq	r0, ip, ip
    aff8:	c0ffc0ff 	ldrshtgt	ip, [pc], #15
	...
    b004:	c03fc03f 	eorsgt	ip, pc, pc, lsr r0	; <UNPREDICTABLE>
    b008:	30c030c0 	sbccc	r3, r0, r0, asr #1
    b00c:	30003000 	andcc	r3, r0, r0
    b010:	c03fc03f 	eorsgt	ip, pc, pc, lsr r0	; <UNPREDICTABLE>
    b014:	00c000c0 	sbceq	r0, r0, r0, asr #1
    b018:	f0fff0ff 			; <UNDEFINED> instruction: 0xf0fff0ff
	...
    b024:	c03fc03f 	eorsgt	ip, pc, pc, lsr r0	; <UNPREDICTABLE>
    b028:	30c030c0 	sbccc	r3, r0, r0, asr #1
    b02c:	c003c003 	andgt	ip, r3, r3
    b030:	30003000 	andcc	r3, r0, r0
    b034:	30c030c0 	sbccc	r3, r0, r0, asr #1
    b038:	c03fc03f 	eorsgt	ip, pc, pc, lsr r0	; <UNPREDICTABLE>
	...
    b044:	00030003 	andeq	r0, r3, r3
    b048:	000f000f 	andeq	r0, pc, pc
    b04c:	00330033 	eorseq	r0, r3, r3, lsr r0
    b050:	00c300c3 	sbceq	r0, r3, r3, asr #1
    b054:	f0fff0ff 			; <UNDEFINED> instruction: 0xf0fff0ff
    b058:	00030003 	andeq	r0, r3, r3
	...
    b064:	f0fff0ff 			; <UNDEFINED> instruction: 0xf0fff0ff
    b068:	00c000c0 	sbceq	r0, r0, r0, asr #1
    b06c:	c0ffc0ff 	ldrshtgt	ip, [pc], #15
    b070:	30003000 	andcc	r3, r0, r0
    b074:	30c030c0 	sbccc	r3, r0, r0, asr #1
    b078:	c03fc03f 	eorsgt	ip, pc, pc, lsr r0	; <UNPREDICTABLE>
	...
    b084:	c03fc03f 	eorsgt	ip, pc, pc, lsr r0	; <UNPREDICTABLE>
    b088:	00c000c0 	sbceq	r0, r0, r0, asr #1
    b08c:	c0ffc0ff 	ldrshtgt	ip, [pc], #15
    b090:	30c030c0 	sbccc	r3, r0, r0, asr #1
    b094:	30c030c0 	sbccc	r3, r0, r0, asr #1
    b098:	c03fc03f 	eorsgt	ip, pc, pc, lsr r0	; <UNPREDICTABLE>
	...
    b0a4:	f0fff0ff 			; <UNDEFINED> instruction: 0xf0fff0ff
    b0a8:	30003000 	andcc	r3, r0, r0
    b0ac:	c000c000 	andgt	ip, r0, r0
    b0b0:	00030003 	andeq	r0, r3, r3
    b0b4:	000c000c 	andeq	r0, ip, ip
    b0b8:	000c000c 	andeq	r0, ip, ip
	...
    b0c4:	c03fc03f 	eorsgt	ip, pc, pc, lsr r0	; <UNPREDICTABLE>
    b0c8:	30c030c0 	sbccc	r3, r0, r0, asr #1
    b0cc:	c03fc03f 	eorsgt	ip, pc, pc, lsr r0	; <UNPREDICTABLE>
    b0d0:	30c030c0 	sbccc	r3, r0, r0, asr #1
    b0d4:	30c030c0 	sbccc	r3, r0, r0, asr #1
    b0d8:	c03fc03f 	eorsgt	ip, pc, pc, lsr r0	; <UNPREDICTABLE>
	...
    b0e4:	c03fc03f 	eorsgt	ip, pc, pc, lsr r0	; <UNPREDICTABLE>
    b0e8:	30c030c0 	sbccc	r3, r0, r0, asr #1
    b0ec:	30c030c0 	sbccc	r3, r0, r0, asr #1
    b0f0:	f03ff03f 			; <UNDEFINED> instruction: 0xf03ff03f
    b0f4:	30003000 	andcc	r3, r0, r0
    b0f8:	c03fc03f 	eorsgt	ip, pc, pc, lsr r0	; <UNPREDICTABLE>
	...
    b10c:	80018001 	andhi	r8, r1, r1
	...
    b118:	80018001 	andhi	r8, r1, r1
	...
    b128:	00030003 	andeq	r0, r3, r3
	...
    b134:	00030003 	andeq	r0, r3, r3
    b138:	00030003 	andeq	r0, r3, r3
    b13c:	000c000c 	andeq	r0, ip, ip
	...
    b148:	c000c000 	andgt	ip, r0, r0
    b14c:	00030003 	andeq	r0, r3, r3
    b150:	000c000c 	andeq	r0, ip, ip
    b154:	00030003 	andeq	r0, r3, r3
    b158:	c000c000 	andgt	ip, r0, r0
	...
    b16c:	f03ff03f 			; <UNDEFINED> instruction: 0xf03ff03f
    b170:	00000000 	andeq	r0, r0, r0
    b174:	f03ff03f 			; <UNDEFINED> instruction: 0xf03ff03f
	...
    b188:	000c000c 	andeq	r0, ip, ip
    b18c:	00030003 	andeq	r0, r3, r3
    b190:	c000c000 	andgt	ip, r0, r0
    b194:	00030003 	andeq	r0, r3, r3
    b198:	000c000c 	andeq	r0, ip, ip
	...
    b1a4:	f00ff00f 			; <UNDEFINED> instruction: 0xf00ff00f
    b1a8:	0c300c30 	ldceq	12, cr0, [r0], #-192	; 0xffffff40
    b1ac:	30003000 	andcc	r3, r0, r0
    b1b0:	c000c000 	andgt	ip, r0, r0
    b1b4:	00000000 	andeq	r0, r0, r0
    b1b8:	c000c000 	andgt	ip, r0, r0
	...
    b1c4:	f00ff00f 			; <UNDEFINED> instruction: 0xf00ff00f
    b1c8:	cc30cc30 	ldcgt	12, cr12, [r0], #-192	; 0xffffff40
    b1cc:	3c333c33 	ldccc	12, cr3, [r3], #-204	; 0xffffff34
    b1d0:	fc33fc33 	ldc2	12, cr15, [r3], #-204	; 0xffffff34
    b1d4:	00300030 	eorseq	r0, r0, r0, lsr r0
    b1d8:	f00ff00f 			; <UNDEFINED> instruction: 0xf00ff00f
	...
    b1e4:	c03fc03f 	eorsgt	ip, pc, pc, lsr r0	; <UNPREDICTABLE>
    b1e8:	30c030c0 	sbccc	r3, r0, r0, asr #1
    b1ec:	30c030c0 	sbccc	r3, r0, r0, asr #1
    b1f0:	f0fff0ff 			; <UNDEFINED> instruction: 0xf0fff0ff
    b1f4:	30c030c0 	sbccc	r3, r0, r0, asr #1
    b1f8:	30c030c0 	sbccc	r3, r0, r0, asr #1
	...
    b204:	c0ffc0ff 	ldrshtgt	ip, [pc], #15
    b208:	30c030c0 	sbccc	r3, r0, r0, asr #1
    b20c:	c0ffc0ff 	ldrshtgt	ip, [pc], #15
    b210:	30c030c0 	sbccc	r3, r0, r0, asr #1
    b214:	30c030c0 	sbccc	r3, r0, r0, asr #1
    b218:	c0ffc0ff 	ldrshtgt	ip, [pc], #15
	...
    b224:	c03fc03f 	eorsgt	ip, pc, pc, lsr r0	; <UNPREDICTABLE>
    b228:	30c030c0 	sbccc	r3, r0, r0, asr #1
    b22c:	00c000c0 	sbceq	r0, r0, r0, asr #1
    b230:	00c000c0 	sbceq	r0, r0, r0, asr #1
    b234:	30c030c0 	sbccc	r3, r0, r0, asr #1
    b238:	c03fc03f 	eorsgt	ip, pc, pc, lsr r0	; <UNPREDICTABLE>
	...
    b244:	00ff00ff 	ldrshteq	r0, [pc], #15
    b248:	c0c0c0c0 	sbcgt	ip, r0, r0, asr #1
    b24c:	30c030c0 	sbccc	r3, r0, r0, asr #1
    b250:	30c030c0 	sbccc	r3, r0, r0, asr #1
    b254:	c0c0c0c0 	sbcgt	ip, r0, r0, asr #1
    b258:	00ff00ff 	ldrshteq	r0, [pc], #15
	...
    b264:	f0fff0ff 			; <UNDEFINED> instruction: 0xf0fff0ff
    b268:	00c000c0 	sbceq	r0, r0, r0, asr #1
    b26c:	c0ffc0ff 	ldrshtgt	ip, [pc], #15
    b270:	00c000c0 	sbceq	r0, r0, r0, asr #1
    b274:	00c000c0 	sbceq	r0, r0, r0, asr #1
    b278:	f0fff0ff 			; <UNDEFINED> instruction: 0xf0fff0ff
	...
    b284:	f0fff0ff 			; <UNDEFINED> instruction: 0xf0fff0ff
    b288:	00c000c0 	sbceq	r0, r0, r0, asr #1
    b28c:	c0ffc0ff 	ldrshtgt	ip, [pc], #15
    b290:	00c000c0 	sbceq	r0, r0, r0, asr #1
    b294:	00c000c0 	sbceq	r0, r0, r0, asr #1
    b298:	00c000c0 	sbceq	r0, r0, r0, asr #1
	...
    b2a4:	c03fc03f 	eorsgt	ip, pc, pc, lsr r0	; <UNPREDICTABLE>
    b2a8:	30c030c0 	sbccc	r3, r0, r0, asr #1
    b2ac:	00c000c0 	sbceq	r0, r0, r0, asr #1
    b2b0:	f0c3f0c3 			; <UNDEFINED> instruction: 0xf0c3f0c3
    b2b4:	30c030c0 	sbccc	r3, r0, r0, asr #1
    b2b8:	c03fc03f 	eorsgt	ip, pc, pc, lsr r0	; <UNPREDICTABLE>
	...
    b2c4:	30c030c0 	sbccc	r3, r0, r0, asr #1
    b2c8:	30c030c0 	sbccc	r3, r0, r0, asr #1
    b2cc:	f0fff0ff 			; <UNDEFINED> instruction: 0xf0fff0ff
    b2d0:	30c030c0 	sbccc	r3, r0, r0, asr #1
    b2d4:	30c030c0 	sbccc	r3, r0, r0, asr #1
    b2d8:	30c030c0 	sbccc	r3, r0, r0, asr #1
	...
    b2e4:	f03ff03f 			; <UNDEFINED> instruction: 0xf03ff03f
    b2e8:	00030003 	andeq	r0, r3, r3
    b2ec:	00030003 	andeq	r0, r3, r3
    b2f0:	00030003 	andeq	r0, r3, r3
    b2f4:	00030003 	andeq	r0, r3, r3
    b2f8:	f03ff03f 			; <UNDEFINED> instruction: 0xf03ff03f
	...
    b304:	30003000 	andcc	r3, r0, r0
    b308:	30003000 	andcc	r3, r0, r0
    b30c:	30003000 	andcc	r3, r0, r0
    b310:	30c030c0 	sbccc	r3, r0, r0, asr #1
    b314:	30c030c0 	sbccc	r3, r0, r0, asr #1
    b318:	c03fc03f 	eorsgt	ip, pc, pc, lsr r0	; <UNPREDICTABLE>
	...
    b324:	c0c0c0c0 	sbcgt	ip, r0, r0, asr #1
    b328:	00c300c3 	sbceq	r0, r3, r3, asr #1
    b32c:	00fc00fc 	ldrshteq	r0, [ip], #12
    b330:	00c300c3 	sbceq	r0, r3, r3, asr #1
    b334:	c0c0c0c0 	sbcgt	ip, r0, r0, asr #1
    b338:	30c030c0 	sbccc	r3, r0, r0, asr #1
	...
    b344:	00c000c0 	sbceq	r0, r0, r0, asr #1
    b348:	00c000c0 	sbceq	r0, r0, r0, asr #1
    b34c:	00c000c0 	sbceq	r0, r0, r0, asr #1
    b350:	00c000c0 	sbceq	r0, r0, r0, asr #1
    b354:	00c000c0 	sbceq	r0, r0, r0, asr #1
    b358:	f0fff0ff 			; <UNDEFINED> instruction: 0xf0fff0ff
	...
    b364:	30c030c0 	sbccc	r3, r0, r0, asr #1
    b368:	f0f0f0f0 			; <UNDEFINED> instruction: 0xf0f0f0f0
    b36c:	30cf30cf 	sbccc	r3, pc, pc, asr #1
    b370:	30c030c0 	sbccc	r3, r0, r0, asr #1
    b374:	30c030c0 	sbccc	r3, r0, r0, asr #1
    b378:	30c030c0 	sbccc	r3, r0, r0, asr #1
	...
    b384:	30c030c0 	sbccc	r3, r0, r0, asr #1
    b388:	30f030f0 	ldrshtcc	r3, [r0], #0
    b38c:	30cc30cc 	sbccc	r3, ip, ip, asr #1
    b390:	30c330c3 	sbccc	r3, r3, r3, asr #1
    b394:	f0c0f0c0 			; <UNDEFINED> instruction: 0xf0c0f0c0
    b398:	30c030c0 	sbccc	r3, r0, r0, asr #1
	...
    b3a4:	c03fc03f 	eorsgt	ip, pc, pc, lsr r0	; <UNPREDICTABLE>
    b3a8:	30c030c0 	sbccc	r3, r0, r0, asr #1
    b3ac:	30c030c0 	sbccc	r3, r0, r0, asr #1
    b3b0:	30c030c0 	sbccc	r3, r0, r0, asr #1
    b3b4:	30c030c0 	sbccc	r3, r0, r0, asr #1
    b3b8:	c03fc03f 	eorsgt	ip, pc, pc, lsr r0	; <UNPREDICTABLE>
	...
    b3c4:	c0ffc0ff 	ldrshtgt	ip, [pc], #15
    b3c8:	30c030c0 	sbccc	r3, r0, r0, asr #1
    b3cc:	30c030c0 	sbccc	r3, r0, r0, asr #1
    b3d0:	c0ffc0ff 	ldrshtgt	ip, [pc], #15
    b3d4:	00c000c0 	sbceq	r0, r0, r0, asr #1
    b3d8:	00c000c0 	sbceq	r0, r0, r0, asr #1
	...
    b3e4:	c03fc03f 	eorsgt	ip, pc, pc, lsr r0	; <UNPREDICTABLE>
    b3e8:	30c030c0 	sbccc	r3, r0, r0, asr #1
    b3ec:	30c030c0 	sbccc	r3, r0, r0, asr #1
    b3f0:	30cc30cc 	sbccc	r3, ip, ip, asr #1
    b3f4:	30c330c3 	sbccc	r3, r3, r3, asr #1
    b3f8:	c03fc03f 	eorsgt	ip, pc, pc, lsr r0	; <UNPREDICTABLE>
	...
    b404:	c0ffc0ff 	ldrshtgt	ip, [pc], #15
    b408:	30c030c0 	sbccc	r3, r0, r0, asr #1
    b40c:	30c030c0 	sbccc	r3, r0, r0, asr #1
    b410:	c0ffc0ff 	ldrshtgt	ip, [pc], #15
    b414:	c0c0c0c0 	sbcgt	ip, r0, r0, asr #1
    b418:	30c030c0 	sbccc	r3, r0, r0, asr #1
	...
    b424:	c03fc03f 	eorsgt	ip, pc, pc, lsr r0	; <UNPREDICTABLE>
    b428:	00c000c0 	sbceq	r0, r0, r0, asr #1
    b42c:	c03fc03f 	eorsgt	ip, pc, pc, lsr r0	; <UNPREDICTABLE>
    b430:	30003000 	andcc	r3, r0, r0
    b434:	30c030c0 	sbccc	r3, r0, r0, asr #1
    b438:	c03fc03f 	eorsgt	ip, pc, pc, lsr r0	; <UNPREDICTABLE>
	...
    b444:	fcfffcff 	ldc2l	12, cr15, [pc], #1020	; b848 <Sinclair_Inverted_M+0xa8c>
    b448:	00030003 	andeq	r0, r3, r3
    b44c:	00030003 	andeq	r0, r3, r3
    b450:	00030003 	andeq	r0, r3, r3
    b454:	00030003 	andeq	r0, r3, r3
    b458:	00030003 	andeq	r0, r3, r3
	...
    b464:	30c030c0 	sbccc	r3, r0, r0, asr #1
    b468:	30c030c0 	sbccc	r3, r0, r0, asr #1
    b46c:	30c030c0 	sbccc	r3, r0, r0, asr #1
    b470:	30c030c0 	sbccc	r3, r0, r0, asr #1
    b474:	30c030c0 	sbccc	r3, r0, r0, asr #1
    b478:	c03fc03f 	eorsgt	ip, pc, pc, lsr r0	; <UNPREDICTABLE>
	...
    b484:	30c030c0 	sbccc	r3, r0, r0, asr #1
    b488:	30c030c0 	sbccc	r3, r0, r0, asr #1
    b48c:	30c030c0 	sbccc	r3, r0, r0, asr #1
    b490:	30c030c0 	sbccc	r3, r0, r0, asr #1
    b494:	c030c030 	eorsgt	ip, r0, r0, lsr r0
    b498:	000f000f 	andeq	r0, pc, pc
	...
    b4a4:	30c030c0 	sbccc	r3, r0, r0, asr #1
    b4a8:	30c030c0 	sbccc	r3, r0, r0, asr #1
    b4ac:	30c030c0 	sbccc	r3, r0, r0, asr #1
    b4b0:	30c030c0 	sbccc	r3, r0, r0, asr #1
    b4b4:	30cf30cf 	sbccc	r3, pc, pc, asr #1
    b4b8:	c030c030 	eorsgt	ip, r0, r0, lsr r0
	...
    b4c4:	30c030c0 	sbccc	r3, r0, r0, asr #1
    b4c8:	c030c030 	eorsgt	ip, r0, r0, lsr r0
    b4cc:	000f000f 	andeq	r0, pc, pc
    b4d0:	000f000f 	andeq	r0, pc, pc
    b4d4:	c030c030 	eorsgt	ip, r0, r0, lsr r0
    b4d8:	30c030c0 	sbccc	r3, r0, r0, asr #1
	...
    b4e4:	0cc00cc0 	stcleq	12, cr0, [r0], {192}	; 0xc0
    b4e8:	30303030 	eorscc	r3, r0, r0, lsr r0
    b4ec:	c00cc00c 	andgt	ip, ip, ip
    b4f0:	00030003 	andeq	r0, r3, r3
    b4f4:	00030003 	andeq	r0, r3, r3
    b4f8:	00030003 	andeq	r0, r3, r3
	...
    b504:	f0fff0ff 			; <UNDEFINED> instruction: 0xf0fff0ff
    b508:	c000c000 	andgt	ip, r0, r0
    b50c:	00030003 	andeq	r0, r3, r3
    b510:	000c000c 	andeq	r0, ip, ip
    b514:	00300030 	eorseq	r0, r0, r0, lsr r0
    b518:	f0fff0ff 			; <UNDEFINED> instruction: 0xf0fff0ff
	...
    b524:	c00fc00f 	andgt	ip, pc, pc
    b528:	000c000c 	andeq	r0, ip, ip
    b52c:	000c000c 	andeq	r0, ip, ip
    b530:	000c000c 	andeq	r0, ip, ip
    b534:	000c000c 	andeq	r0, ip, ip
    b538:	c00fc00f 	andgt	ip, pc, pc
	...
    b548:	00300030 	eorseq	r0, r0, r0, lsr r0
    b54c:	000c000c 	andeq	r0, ip, ip
    b550:	00030003 	andeq	r0, r3, r3
    b554:	c000c000 	andgt	ip, r0, r0
    b558:	30003000 	andcc	r3, r0, r0
	...
    b564:	c00fc00f 	andgt	ip, pc, pc
    b568:	c000c000 	andgt	ip, r0, r0
    b56c:	c000c000 	andgt	ip, r0, r0
    b570:	c000c000 	andgt	ip, r0, r0
    b574:	c000c000 	andgt	ip, r0, r0
    b578:	c00fc00f 	andgt	ip, pc, pc
	...
    b584:	00030003 	andeq	r0, r3, r3
    b588:	c00fc00f 	andgt	ip, pc, pc
    b58c:	30333033 	eorscc	r3, r3, r3, lsr r0
    b590:	00030003 	andeq	r0, r3, r3
    b594:	00030003 	andeq	r0, r3, r3
    b598:	00030003 	andeq	r0, r3, r3
	...
    b5bc:	fcfffcff 	ldc2l	12, cr15, [pc], #1020	; b9c0 <greenCounter>
    b5c0:	f00ff00f 			; <UNDEFINED> instruction: 0xf00ff00f
    b5c4:	0c300c30 	ldceq	12, cr0, [r0], #-192	; 0xffffff40
    b5c8:	c3c3c3c3 	bicgt	ip, r3, #201326595	; 0xc000003
    b5cc:	03cc03cc 	biceq	r0, ip, #204, 6	; 0x30000003
    b5d0:	03cc03cc 	biceq	r0, ip, #204, 6	; 0x30000003
    b5d4:	c3c3c3c3 	bicgt	ip, r3, #201326595	; 0xc000003
    b5d8:	0c300c30 	ldceq	12, cr0, [r0], #-192	; 0xffffff40
    b5dc:	f00ff00f 			; <UNDEFINED> instruction: 0xf00ff00f
    b5e0:	ffffffff 			; <UNDEFINED> instruction: 0xffffffff
    b5e4:	3fc03fc0 	svccc	0x00c03fc0
    b5e8:	cf3fcf3f 	svcgt	0x003fcf3f
    b5ec:	cf3fcf3f 	svcgt	0x003fcf3f
    b5f0:	0f000f00 	svceq	0x00000f00
    b5f4:	cf3fcf3f 	svcgt	0x003fcf3f
    b5f8:	cf3fcf3f 	svcgt	0x003fcf3f
    b5fc:	ffffffff 			; <UNDEFINED> instruction: 0xffffffff
    b600:	ffffffff 			; <UNDEFINED> instruction: 0xffffffff
    b604:	3f003f00 	svccc	0x00003f00
    b608:	cf3fcf3f 	svcgt	0x003fcf3f
    b60c:	3f003f00 	svccc	0x00003f00
    b610:	cf3fcf3f 	svcgt	0x003fcf3f
    b614:	cf3fcf3f 	svcgt	0x003fcf3f
    b618:	3f003f00 	svccc	0x00003f00
    b61c:	ffffffff 			; <UNDEFINED> instruction: 0xffffffff
    b620:	ffffffff 			; <UNDEFINED> instruction: 0xffffffff
    b624:	3fc03fc0 	svccc	0x00c03fc0
    b628:	cf3fcf3f 	svcgt	0x003fcf3f
    b62c:	ff3fff3f 			; <UNDEFINED> instruction: 0xff3fff3f
    b630:	ff3fff3f 			; <UNDEFINED> instruction: 0xff3fff3f
    b634:	cf3fcf3f 	svcgt	0x003fcf3f
    b638:	3fc03fc0 	svccc	0x00c03fc0
    b63c:	ffffffff 			; <UNDEFINED> instruction: 0xffffffff
    b640:	ffffffff 			; <UNDEFINED> instruction: 0xffffffff
    b644:	ff00ff00 			; <UNDEFINED> instruction: 0xff00ff00
    b648:	3f3f3f3f 	svccc	0x003f3f3f
    b64c:	cf3fcf3f 	svcgt	0x003fcf3f
    b650:	cf3fcf3f 	svcgt	0x003fcf3f
    b654:	3f3f3f3f 	svccc	0x003f3f3f
    b658:	ff00ff00 			; <UNDEFINED> instruction: 0xff00ff00
    b65c:	ffffffff 			; <UNDEFINED> instruction: 0xffffffff
    b660:	ffffffff 			; <UNDEFINED> instruction: 0xffffffff
    b664:	0f000f00 	svceq	0x00000f00
    b668:	ff3fff3f 			; <UNDEFINED> instruction: 0xff3fff3f
    b66c:	3f003f00 	svccc	0x00003f00
    b670:	ff3fff3f 			; <UNDEFINED> instruction: 0xff3fff3f
    b674:	ff3fff3f 			; <UNDEFINED> instruction: 0xff3fff3f
    b678:	0f000f00 	svceq	0x00000f00
    b67c:	ffffffff 			; <UNDEFINED> instruction: 0xffffffff
    b680:	ffffffff 			; <UNDEFINED> instruction: 0xffffffff
    b684:	0f000f00 	svceq	0x00000f00
    b688:	ff3fff3f 			; <UNDEFINED> instruction: 0xff3fff3f
    b68c:	3f003f00 	svccc	0x00003f00
    b690:	ff3fff3f 			; <UNDEFINED> instruction: 0xff3fff3f
    b694:	ff3fff3f 			; <UNDEFINED> instruction: 0xff3fff3f
    b698:	ff3fff3f 			; <UNDEFINED> instruction: 0xff3fff3f
    b69c:	ffffffff 			; <UNDEFINED> instruction: 0xffffffff
    b6a0:	ffffffff 			; <UNDEFINED> instruction: 0xffffffff
    b6a4:	3fc03fc0 	svccc	0x00c03fc0
    b6a8:	cf3fcf3f 	svcgt	0x003fcf3f
    b6ac:	ff3fff3f 			; <UNDEFINED> instruction: 0xff3fff3f
    b6b0:	0f3c0f3c 	svceq	0x003c0f3c
    b6b4:	cf3fcf3f 	svcgt	0x003fcf3f
    b6b8:	3fc03fc0 	svccc	0x00c03fc0
    b6bc:	ffffffff 			; <UNDEFINED> instruction: 0xffffffff
    b6c0:	ffffffff 			; <UNDEFINED> instruction: 0xffffffff
    b6c4:	cf3fcf3f 	svcgt	0x003fcf3f
    b6c8:	cf3fcf3f 	svcgt	0x003fcf3f
    b6cc:	0f000f00 	svceq	0x00000f00
    b6d0:	cf3fcf3f 	svcgt	0x003fcf3f
    b6d4:	cf3fcf3f 	svcgt	0x003fcf3f
    b6d8:	cf3fcf3f 	svcgt	0x003fcf3f
    b6dc:	ffffffff 			; <UNDEFINED> instruction: 0xffffffff
    b6e0:	ffffffff 			; <UNDEFINED> instruction: 0xffffffff
    b6e4:	0fc00fc0 	svceq	0x00c00fc0
    b6e8:	fffcfffc 			; <UNDEFINED> instruction: 0xfffcfffc
    b6ec:	fffcfffc 			; <UNDEFINED> instruction: 0xfffcfffc
    b6f0:	fffcfffc 			; <UNDEFINED> instruction: 0xfffcfffc
    b6f4:	fffcfffc 			; <UNDEFINED> instruction: 0xfffcfffc
    b6f8:	0fc00fc0 	svceq	0x00c00fc0
    b6fc:	ffffffff 			; <UNDEFINED> instruction: 0xffffffff
    b700:	ffffffff 			; <UNDEFINED> instruction: 0xffffffff
    b704:	cfffcfff 	svcgt	0x00ffcfff
    b708:	cfffcfff 	svcgt	0x00ffcfff
    b70c:	cfffcfff 	svcgt	0x00ffcfff
    b710:	cf3fcf3f 	svcgt	0x003fcf3f
    b714:	cf3fcf3f 	svcgt	0x003fcf3f
    b718:	3fc03fc0 	svccc	0x00c03fc0
    b71c:	ffffffff 			; <UNDEFINED> instruction: 0xffffffff
    b720:	ffffffff 			; <UNDEFINED> instruction: 0xffffffff
    b724:	3f3f3f3f 	svccc	0x003f3f3f
    b728:	ff3cff3c 			; <UNDEFINED> instruction: 0xff3cff3c
    b72c:	ff03ff03 			; <UNDEFINED> instruction: 0xff03ff03
    b730:	ff3cff3c 			; <UNDEFINED> instruction: 0xff3cff3c
    b734:	3f3f3f3f 	svccc	0x003f3f3f
    b738:	cf3fcf3f 	svcgt	0x003fcf3f
    b73c:	ffffffff 			; <UNDEFINED> instruction: 0xffffffff
    b740:	ffffffff 			; <UNDEFINED> instruction: 0xffffffff
    b744:	ff3fff3f 			; <UNDEFINED> instruction: 0xff3fff3f
    b748:	ff3fff3f 			; <UNDEFINED> instruction: 0xff3fff3f
    b74c:	ff3fff3f 			; <UNDEFINED> instruction: 0xff3fff3f
    b750:	ff3fff3f 			; <UNDEFINED> instruction: 0xff3fff3f
    b754:	ff3fff3f 			; <UNDEFINED> instruction: 0xff3fff3f
    b758:	0f000f00 	svceq	0x00000f00
    b75c:	ffffffff 			; <UNDEFINED> instruction: 0xffffffff
    b760:	ffffffff 			; <UNDEFINED> instruction: 0xffffffff
    b764:	cf3fcf3f 	svcgt	0x003fcf3f
    b768:	0f0f0f0f 	svceq	0x000f0f0f
    b76c:	cf30cf30 	svcgt	0x0030cf30
    b770:	cf3fcf3f 	svcgt	0x003fcf3f
    b774:	cf3fcf3f 	svcgt	0x003fcf3f
    b778:	cf3fcf3f 	svcgt	0x003fcf3f
    b77c:	ffffffff 			; <UNDEFINED> instruction: 0xffffffff
    b780:	ffffffff 			; <UNDEFINED> instruction: 0xffffffff
    b784:	cf3fcf3f 	svcgt	0x003fcf3f
    b788:	cf0fcf0f 	svcgt	0x000fcf0f
    b78c:	cf33cf33 	svcgt	0x0033cf33
    b790:	cf3ccf3c 	svcgt	0x003ccf3c
    b794:	0f3f0f3f 	svceq	0x003f0f3f
    b798:	cf3fcf3f 	svcgt	0x003fcf3f
    b79c:	ffffffff 			; <UNDEFINED> instruction: 0xffffffff
    b7a0:	ffffffff 			; <UNDEFINED> instruction: 0xffffffff
    b7a4:	3fc03fc0 	svccc	0x00c03fc0
    b7a8:	cf3fcf3f 	svcgt	0x003fcf3f
    b7ac:	cf3fcf3f 	svcgt	0x003fcf3f
    b7b0:	cf3fcf3f 	svcgt	0x003fcf3f
    b7b4:	cf3fcf3f 	svcgt	0x003fcf3f
    b7b8:	3fc03fc0 	svccc	0x00c03fc0
    b7bc:	ffffffff 			; <UNDEFINED> instruction: 0xffffffff
    b7c0:	ffffffff 			; <UNDEFINED> instruction: 0xffffffff
    b7c4:	3f003f00 	svccc	0x00003f00
    b7c8:	cf3fcf3f 	svcgt	0x003fcf3f
    b7cc:	cf3fcf3f 	svcgt	0x003fcf3f
    b7d0:	3f003f00 	svccc	0x00003f00
    b7d4:	ff3fff3f 			; <UNDEFINED> instruction: 0xff3fff3f
    b7d8:	ff3fff3f 			; <UNDEFINED> instruction: 0xff3fff3f
    b7dc:	ffffffff 			; <UNDEFINED> instruction: 0xffffffff
    b7e0:	ffffffff 			; <UNDEFINED> instruction: 0xffffffff
    b7e4:	3fc03fc0 	svccc	0x00c03fc0
    b7e8:	cf3fcf3f 	svcgt	0x003fcf3f
    b7ec:	cf3fcf3f 	svcgt	0x003fcf3f
    b7f0:	cf33cf33 	svcgt	0x0033cf33
    b7f4:	cf3ccf3c 	svcgt	0x003ccf3c
    b7f8:	3fc03fc0 	svccc	0x00c03fc0
    b7fc:	ffffffff 			; <UNDEFINED> instruction: 0xffffffff
    b800:	ffffffff 			; <UNDEFINED> instruction: 0xffffffff
    b804:	3f003f00 	svccc	0x00003f00
    b808:	cf3fcf3f 	svcgt	0x003fcf3f
    b80c:	cf3fcf3f 	svcgt	0x003fcf3f
    b810:	3f003f00 	svccc	0x00003f00
    b814:	3f3f3f3f 	svccc	0x003f3f3f
    b818:	cf3fcf3f 	svcgt	0x003fcf3f
    b81c:	ffffffff 			; <UNDEFINED> instruction: 0xffffffff
    b820:	ffffffff 			; <UNDEFINED> instruction: 0xffffffff
    b824:	3fc03fc0 	svccc	0x00c03fc0
    b828:	ff3fff3f 			; <UNDEFINED> instruction: 0xff3fff3f
    b82c:	3fc03fc0 	svccc	0x00c03fc0
    b830:	cfffcfff 	svcgt	0x00ffcfff
    b834:	cf3fcf3f 	svcgt	0x003fcf3f
    b838:	3fc03fc0 	svccc	0x00c03fc0
    b83c:	ffffffff 			; <UNDEFINED> instruction: 0xffffffff
    b840:	ffffffff 			; <UNDEFINED> instruction: 0xffffffff
    b844:	03000300 	movweq	r0, #768	; 0x300
    b848:	fffcfffc 			; <UNDEFINED> instruction: 0xfffcfffc
    b84c:	fffcfffc 			; <UNDEFINED> instruction: 0xfffcfffc
    b850:	fffcfffc 			; <UNDEFINED> instruction: 0xfffcfffc
    b854:	fffcfffc 			; <UNDEFINED> instruction: 0xfffcfffc
    b858:	fffcfffc 			; <UNDEFINED> instruction: 0xfffcfffc
    b85c:	ffffffff 			; <UNDEFINED> instruction: 0xffffffff
    b860:	ffffffff 			; <UNDEFINED> instruction: 0xffffffff
    b864:	cf3fcf3f 	svcgt	0x003fcf3f
    b868:	cf3fcf3f 	svcgt	0x003fcf3f
    b86c:	cf3fcf3f 	svcgt	0x003fcf3f
    b870:	cf3fcf3f 	svcgt	0x003fcf3f
    b874:	cf3fcf3f 	svcgt	0x003fcf3f
    b878:	3fc03fc0 	svccc	0x00c03fc0
    b87c:	ffffffff 			; <UNDEFINED> instruction: 0xffffffff
    b880:	ffffffff 			; <UNDEFINED> instruction: 0xffffffff
    b884:	cf3fcf3f 	svcgt	0x003fcf3f
    b888:	cf3fcf3f 	svcgt	0x003fcf3f
    b88c:	cf3fcf3f 	svcgt	0x003fcf3f
    b890:	cf3fcf3f 	svcgt	0x003fcf3f
    b894:	3fcf3fcf 	svccc	0x00cf3fcf
    b898:	fff0fff0 			; <UNDEFINED> instruction: 0xfff0fff0
    b89c:	ffffffff 			; <UNDEFINED> instruction: 0xffffffff
    b8a0:	ffffffff 			; <UNDEFINED> instruction: 0xffffffff
    b8a4:	cf3fcf3f 	svcgt	0x003fcf3f
    b8a8:	cf3fcf3f 	svcgt	0x003fcf3f
    b8ac:	cf3fcf3f 	svcgt	0x003fcf3f
    b8b0:	cf3fcf3f 	svcgt	0x003fcf3f
    b8b4:	cf30cf30 	svcgt	0x0030cf30
    b8b8:	3fcf3fcf 	svccc	0x00cf3fcf
    b8bc:	ffffffff 			; <UNDEFINED> instruction: 0xffffffff
    b8c0:	ffffffff 			; <UNDEFINED> instruction: 0xffffffff
    b8c4:	cf3fcf3f 	svcgt	0x003fcf3f
    b8c8:	3fcf3fcf 	svccc	0x00cf3fcf
    b8cc:	fff0fff0 			; <UNDEFINED> instruction: 0xfff0fff0
    b8d0:	fff0fff0 			; <UNDEFINED> instruction: 0xfff0fff0
    b8d4:	3fcf3fcf 	svccc	0x00cf3fcf
    b8d8:	cf3fcf3f 	svcgt	0x003fcf3f
    b8dc:	ffffffff 			; <UNDEFINED> instruction: 0xffffffff
    b8e0:	ffffffff 			; <UNDEFINED> instruction: 0xffffffff
    b8e4:	f33ff33f 	vcge.u<illegal width 64>	d15, d15, d31
    b8e8:	cfcfcfcf 	svcgt	0x00cfcfcf
    b8ec:	3ff33ff3 	svccc	0x00f33ff3
    b8f0:	fffcfffc 			; <UNDEFINED> instruction: 0xfffcfffc
    b8f4:	fffcfffc 			; <UNDEFINED> instruction: 0xfffcfffc
    b8f8:	fffcfffc 			; <UNDEFINED> instruction: 0xfffcfffc
    b8fc:	ffffffff 			; <UNDEFINED> instruction: 0xffffffff
    b900:	ffffffff 			; <UNDEFINED> instruction: 0xffffffff
    b904:	0f000f00 	svceq	0x00000f00
    b908:	3fff3fff 	svccc	0x00ff3fff
    b90c:	fffcfffc 			; <UNDEFINED> instruction: 0xfffcfffc
    b910:	fff3fff3 			; <UNDEFINED> instruction: 0xfff3fff3
    b914:	ffcfffcf 			; <UNDEFINED> instruction: 0xffcfffcf
    b918:	0f000f00 	svceq	0x00000f00
    b91c:	ffffffff 			; <UNDEFINED> instruction: 0xffffffff
    b920:	00000000 	andeq	r0, r0, r0
    b924:	f003f003 			; <UNDEFINED> instruction: 0xf003f003
    b928:	00030003 	andeq	r0, r3, r3
    b92c:	003c003c 	eorseq	r0, ip, ip, lsr r0
    b930:	00030003 	andeq	r0, r3, r3
    b934:	00030003 	andeq	r0, r3, r3
    b938:	f003f003 			; <UNDEFINED> instruction: 0xf003f003
	...
    b944:	00030003 	andeq	r0, r3, r3
    b948:	00030003 	andeq	r0, r3, r3
    b94c:	00030003 	andeq	r0, r3, r3
    b950:	00030003 	andeq	r0, r3, r3
    b954:	00030003 	andeq	r0, r3, r3
    b958:	00030003 	andeq	r0, r3, r3
	...
    b964:	003f003f 	eorseq	r0, pc, pc, lsr r0	; <UNPREDICTABLE>
    b968:	00030003 	andeq	r0, r3, r3
    b96c:	f000f000 			; <UNDEFINED> instruction: 0xf000f000
    b970:	00030003 	andeq	r0, r3, r3
    b974:	00030003 	andeq	r0, r3, r3
    b978:	003f003f 	eorseq	r0, pc, pc, lsr r0	; <UNPREDICTABLE>
	...
    b984:	30033003 	andcc	r3, r3, r3
    b988:	c00cc00c 	andgt	ip, ip, ip
	...

0000b9a0 <CSWTCH.9>:
    b9a0:	00000001 	andeq	r0, r0, r1
    b9a4:	00000004 	andeq	r0, r0, r4
    b9a8:	00000004 	andeq	r0, r0, r4
    b9ac:	00000002 	andeq	r0, r0, r2
    b9b0:	00000003 	andeq	r0, r0, r3
    b9b4:	00000000 	andeq	r0, r0, r0

Disassembly of section .bss:

0000b9b8 <redCounter>:
    b9b8:	00000000 	andeq	r0, r0, r0

0000b9bc <greenDirection>:
    b9bc:	00000000 	andeq	r0, r0, r0

0000b9c0 <greenCounter>:
    b9c0:	00000000 	andeq	r0, r0, r0

0000b9c4 <level>:
    b9c4:	00000000 	andeq	r0, r0, r0

0000b9c8 <interval>:
    b9c8:	00000000 	andeq	r0, r0, r0

0000b9cc <extKIrqHandler>:
    b9cc:	00000000 	andeq	r0, r0, r0

0000b9d0 <background>:
    b9d0:	00000000 	andeq	r0, r0, r0

0000b9d4 <extTIrqHandler>:
    b9d4:	00000000 	andeq	r0, r0, r0

0000b9d8 <timerMatch>:
    b9d8:	00000000 	andeq	r0, r0, r0

Disassembly of section .else:

0000b9dc <irqLock-0x10c>:
    b9dc:	00001541 	andeq	r1, r0, r1, asr #10
    b9e0:	61656100 	cmnvs	r5, r0, lsl #2
    b9e4:	01006962 	tsteq	r0, r2, ror #18
    b9e8:	0000000b 	andeq	r0, r0, fp
    b9ec:	01080206 	tsteq	r8, r6, lsl #4
    b9f0:	13410109 	movtne	r0, #4361	; 0x1109
    b9f4:	61000000 	mrsvs	r0, (UNDEF: 0)
    b9f8:	69626165 	stmdbvs	r2!, {r0, r2, r5, r6, r8, sp, lr}^
    b9fc:	00090100 	andeq	r0, r9, r0, lsl #2
    ba00:	01060000 	mrseq	r0, (UNDEF: 6)
    ba04:	13410108 	movtne	r0, #4360	; 0x1108
    ba08:	61000000 	mrsvs	r0, (UNDEF: 0)
    ba0c:	69626165 	stmdbvs	r2!, {r0, r2, r5, r6, r8, sp, lr}^
    ba10:	00090100 	andeq	r0, r9, r0, lsl #2
    ba14:	01060000 	mrseq	r0, (UNDEF: 6)
    ba18:	43470108 	movtmi	r0, #28936	; 0x7108
    ba1c:	28203a43 	stmdacs	r0!, {r0, r1, r6, r9, fp, ip, sp}
    ba20:	6e756255 	mrcvs	2, 3, r6, cr5, cr5, {2}
    ba24:	4c2f7574 	cfstr32mi	mvfx7, [pc], #-464	; b85c <Sinclair_Inverted_M+0xaa0>
    ba28:	72616e69 	rsbvc	r6, r1, #1680	; 0x690
    ba2c:	2e34206f 	cdpcs	0, 3, cr2, cr4, cr15, {3}
    ba30:	2d332e37 	ldccs	14, cr2, [r3, #-220]!	; 0xffffff24
    ba34:	62753231 	rsbsvs	r3, r5, #268435459	; 0x10000003
    ba38:	75746e75 	ldrbvc	r6, [r4, #-3701]!	; 0xe75
    ba3c:	34202931 	strtcc	r2, [r0], #-2353	; 0x931
    ba40:	332e372e 	teqcc	lr, #12058624	; 0xb80000
    ba44:	00294100 	eoreq	r4, r9, r0, lsl #2
    ba48:	65610000 	strbvs	r0, [r1, #-0]!
    ba4c:	00696261 	rsbeq	r6, r9, r1, ror #4
    ba50:	00001f01 	andeq	r1, r0, r1, lsl #30
    ba54:	54350500 	ldrtpl	r0, [r5], #-1280	; 0x500
    ba58:	08030600 	stmdaeq	r3, {r9, sl}
    ba5c:	12010901 	andne	r0, r1, #16384	; 0x4000
    ba60:	15011404 	strne	r1, [r1, #-1028]	; 0x404
    ba64:	18031701 	stmdane	r3, {r0, r8, r9, sl, ip}
    ba68:	1a011901 	bne	51e74 <_end+0x461ea>
    ba6c:	00021e02 	andeq	r1, r2, r2, lsl #28
    ba70:	52484553 	subpl	r4, r8, #348127232	; 0x14c00000
    ba74:	54554720 	ldrbpl	r4, [r5], #-1824	; 0x720
    ba78:	00000000 	andeq	r0, r0, r0
    ba7c:	52484553 	subpl	r4, r8, #348127232	; 0x14c00000
    ba80:	48435320 	stmdami	r3, {r5, r8, r9, ip, lr}^
    ba84:	4843454c 	stmdami	r3, {r2, r3, r6, r8, sl, lr}^
    ba88:	00000054 	andeq	r0, r0, r4, asr r0
    ba8c:	4556454c 	ldrbmi	r4, [r6, #-1356]	; 0x54c
    ba90:	0030204c 	eorseq	r2, r0, ip, asr #32
    ba94:	00002941 	andeq	r2, r0, r1, asr #18
    ba98:	61656100 	cmnvs	r5, r0, lsl #2
    ba9c:	01006962 	tsteq	r0, r2, ror #18
    baa0:	0000001f 	andeq	r0, r0, pc, lsl r0
    baa4:	00543505 	subseq	r3, r4, r5, lsl #10
    baa8:	01080306 	tsteq	r8, r6, lsl #6
    baac:	04120109 	ldreq	r0, [r2], #-265	; 0x109
    bab0:	01150114 	tsteq	r5, r4, lsl r1
    bab4:	01180317 	tsteq	r8, r7, lsl r3
    bab8:	021a0119 	andseq	r0, sl, #1073741830	; 0x40000006
    babc:	2941021e 	stmdbcs	r1, {r1, r2, r3, r4, r9}^
    bac0:	61000000 	mrsvs	r0, (UNDEF: 0)
    bac4:	69626165 	stmdbvs	r2!, {r0, r2, r5, r6, r8, sp, lr}^
    bac8:	001f0100 	andseq	r0, pc, r0, lsl #2
    bacc:	35050000 	strcc	r0, [r5, #-0]
    bad0:	03060054 	movweq	r0, #24660	; 0x6054
    bad4:	01090108 	tsteq	r9, r8, lsl #2
    bad8:	01140412 	tsteq	r4, r2, lsl r4
    badc:	03170115 	tsteq	r7, #1073741829	; 0x40000005
    bae0:	01190118 	tsteq	r9, r8, lsl r1
    bae4:	021e021a 	andseq	r0, lr, #-1610612735	; 0xa0000001

0000bae8 <irqLock>:
    bae8:	00000000 	andeq	r0, r0, r0
    baec:	00002941 	andeq	r2, r0, r1, asr #18
    baf0:	61656100 	cmnvs	r5, r0, lsl #2
    baf4:	01006962 	tsteq	r0, r2, ror #18
    baf8:	0000001f 	andeq	r0, r0, pc, lsl r0
    bafc:	00543505 	subseq	r3, r4, r5, lsl #10
    bb00:	01080306 	tsteq	r8, r6, lsl #6
    bb04:	04120109 	ldreq	r0, [r2], #-265	; 0x109
    bb08:	01150114 	tsteq	r5, r4, lsl r1
    bb0c:	01180317 	tsteq	r8, r7, lsl r3
    bb10:	021a0119 	andseq	r0, sl, #1073741830	; 0x40000006
    bb14:	2941021e 	stmdbcs	r1, {r1, r2, r3, r4, r9}^
    bb18:	61000000 	mrsvs	r0, (UNDEF: 0)
    bb1c:	69626165 	stmdbvs	r2!, {r0, r2, r5, r6, r8, sp, lr}^
    bb20:	001f0100 	andseq	r0, pc, r0, lsl #2
    bb24:	35050000 	strcc	r0, [r5, #-0]
    bb28:	03060054 	movweq	r0, #24660	; 0x6054
    bb2c:	01090108 	tsteq	r9, r8, lsl #2
    bb30:	01140412 	tsteq	r4, r2, lsl r4
    bb34:	03170115 	tsteq	r7, #1073741829	; 0x40000005
    bb38:	01190118 	tsteq	r9, r8, lsl r1
    bb3c:	021e021a 	andseq	r0, lr, #-1610612735	; 0xa0000001

0000bb40 <lcdExtEntryFunct>:
    bb40:	00000000 	andeq	r0, r0, r0

0000bb44 <intrTrace>:
    bb44:	00000000 	andeq	r0, r0, r0

0000bb48 <lcdExtExitFunct>:
    bb48:	00000000 	andeq	r0, r0, r0
    bb4c:	00002941 	andeq	r2, r0, r1, asr #18
    bb50:	61656100 	cmnvs	r5, r0, lsl #2
    bb54:	01006962 	tsteq	r0, r2, ror #18
    bb58:	0000001f 	andeq	r0, r0, pc, lsl r0
    bb5c:	00543505 	subseq	r3, r4, r5, lsl #10
    bb60:	01080306 	tsteq	r8, r6, lsl #6
    bb64:	04120109 	ldreq	r0, [r2], #-265	; 0x109
    bb68:	01150114 	tsteq	r5, r4, lsl r1
    bb6c:	01180317 	tsteq	r8, r7, lsl r3
    bb70:	021a0119 	andseq	r0, sl, #1073741830	; 0x40000006
    bb74:	2941021e 	stmdbcs	r1, {r1, r2, r3, r4, r9}^
    bb78:	61000000 	mrsvs	r0, (UNDEF: 0)
    bb7c:	69626165 	stmdbvs	r2!, {r0, r2, r5, r6, r8, sp, lr}^
    bb80:	001f0100 	andseq	r0, pc, r0, lsl #2
    bb84:	35050000 	strcc	r0, [r5, #-0]
    bb88:	03060054 	movweq	r0, #24660	; 0x6054
    bb8c:	01090108 	tsteq	r9, r8, lsl #2
    bb90:	01140412 	tsteq	r4, r2, lsl r4
    bb94:	03170115 	tsteq	r7, #1073741829	; 0x40000005
    bb98:	01190118 	tsteq	r9, r8, lsl r1
    bb9c:	021e021a 	andseq	r0, lr, #-1610612735	; 0xa0000001
    bba0:	00002941 	andeq	r2, r0, r1, asr #18
    bba4:	61656100 	cmnvs	r5, r0, lsl #2
    bba8:	01006962 	tsteq	r0, r2, ror #18
    bbac:	0000001f 	andeq	r0, r0, pc, lsl r0
    bbb0:	00543505 	subseq	r3, r4, r5, lsl #10
    bbb4:	01080306 	tsteq	r8, r6, lsl #6
    bbb8:	04120109 	ldreq	r0, [r2], #-265	; 0x109
    bbbc:	01150114 	tsteq	r5, r4, lsl r1
    bbc0:	01180317 	tsteq	r8, r7, lsl r3
    bbc4:	021a0119 	andseq	r0, sl, #1073741830	; 0x40000006
    bbc8:	2941021e 	stmdbcs	r1, {r1, r2, r3, r4, r9}^
    bbcc:	61000000 	mrsvs	r0, (UNDEF: 0)
    bbd0:	69626165 	stmdbvs	r2!, {r0, r2, r5, r6, r8, sp, lr}^
    bbd4:	001f0100 	andseq	r0, pc, r0, lsl #2
    bbd8:	35050000 	strcc	r0, [r5, #-0]
    bbdc:	03060054 	movweq	r0, #24660	; 0x6054
    bbe0:	01090108 	tsteq	r9, r8, lsl #2
    bbe4:	01140412 	tsteq	r4, r2, lsl r4
    bbe8:	03170115 	tsteq	r7, #1073741829	; 0x40000005
    bbec:	01190118 	tsteq	r9, r8, lsl r1
    bbf0:	021e021a 	andseq	r0, lr, #-1610612735	; 0xa0000001
    bbf4:	00414141 	subeq	r4, r1, r1, asr #2
    bbf8:	00002941 	andeq	r2, r0, r1, asr #18
    bbfc:	61656100 	cmnvs	r5, r0, lsl #2
    bc00:	01006962 	tsteq	r0, r2, ror #18
    bc04:	0000001f 	andeq	r0, r0, pc, lsl r0
    bc08:	00543505 	subseq	r3, r4, r5, lsl #10
    bc0c:	01080306 	tsteq	r8, r6, lsl #6
    bc10:	04120109 	ldreq	r0, [r2], #-265	; 0x109
    bc14:	01150114 	tsteq	r5, r4, lsl r1
    bc18:	01180317 	tsteq	r8, r7, lsl r3
    bc1c:	021a0119 	andseq	r0, sl, #1073741830	; 0x40000006
    bc20:	2941021e 	stmdbcs	r1, {r1, r2, r3, r4, r9}^
    bc24:	61000000 	mrsvs	r0, (UNDEF: 0)
    bc28:	69626165 	stmdbvs	r2!, {r0, r2, r5, r6, r8, sp, lr}^
    bc2c:	001f0100 	andseq	r0, pc, r0, lsl #2
    bc30:	35050000 	strcc	r0, [r5, #-0]
    bc34:	03060054 	movweq	r0, #24660	; 0x6054
    bc38:	01090108 	tsteq	r9, r8, lsl #2
    bc3c:	01140412 	tsteq	r4, r2, lsl r4
    bc40:	03170115 	tsteq	r7, #1073741829	; 0x40000005
    bc44:	01190118 	tsteq	r9, r8, lsl r1
    bc48:	021e021a 	andseq	r0, lr, #-1610612735	; 0xa0000001
    bc4c:	4d434150 	stfmie	f4, [r3, #-320]	; 0xfffffec0
    bc50:	00004e41 	andeq	r4, r0, r1, asr #28
    bc54:	204e4957 	subcs	r4, lr, r7, asr r9
    bc58:	204e4957 	subcs	r4, lr, r7, asr r9
    bc5c:	004e4957 	subeq	r4, lr, r7, asr r9
    bc60:	00002941 	andeq	r2, r0, r1, asr #18
    bc64:	61656100 	cmnvs	r5, r0, lsl #2
    bc68:	01006962 	tsteq	r0, r2, ror #18
    bc6c:	0000001f 	andeq	r0, r0, pc, lsl r0
    bc70:	00543505 	subseq	r3, r4, r5, lsl #10
    bc74:	01080306 	tsteq	r8, r6, lsl #6
    bc78:	04120109 	ldreq	r0, [r2], #-265	; 0x109
    bc7c:	01150114 	tsteq	r5, r4, lsl r1
    bc80:	01180317 	tsteq	r8, r7, lsl r3
    bc84:	021a0119 	andseq	r0, sl, #1073741830	; 0x40000006
    bc88:	Address 0x0000bc88 is out of bounds.

